(lp0
ccopy_reg
_reconstructor
p1
(cfeedparser
FeedParserDict
p2
c__builtin__
dict
p3
(dp4
S'summary_detail'
p5
g1
(g2
g3
(dp6
S'base'
p7
Vhttp://export.arxiv.org/rss/astro-ph
p8
sS'type'
p9
S'text/html'
p10
sS'language'
p11
NsS'value'
p12
V<p>Common models of blazars and gamma-ray bursts assume that the plasma\u000aunderlying the observed phenomenology is magnetized to some extent. Within this\u000acontext, radiative signatures of dissipation of kinetic and magnetic energy in\u000ainternal shocks of relativistic magnetized outflows are studied. We model\u000ainternal shocks as being caused by collisions of homogeneous plasma shells with\u000anon-zero relative velocity. We compute the flow state after the shell\u000ainteraction by solving Riemann problems at the contact surface between the\u000acolliding shells, and then compute the emission from the resulting shocks.\u000aUnder the assumption of a constant flow luminosity we find that there is a\u000aclear difference between the models where both shells are weakly magnetized\u000a({\u005csigma} &lt;~ 0.01) and those where, at least, one shell has a {\u005csigma} &gt;~ 0.01.\u000aWe obtain that the radiative efficiency is largest for models in which,\u000aregardless of the ordering, one shell is weakly and the other strongly\u000amagnetized. Substantial differences between weakly and strongly magnetized\u000ashell collisions are observed in the inverse-Compton part of the spectrum, as\u000awell as in the optical, X-ray and 1GeV light curves. We propose a way to\u000adistinguish observationally between weakly magnetized from magnetized internal\u000ashocks by comparing the maximum frequency of the inverse-Compton and\u000asynchrotron part of the spectrum to the ratio of the inverse-Compton and\u000asynchrotron fluence. Finally, our results suggest that LBL blazars may\u000acorrespond to barely magnetized flows, while HBL blazars could correspond to\u000amoderately magnetized ones. Indeed, by comparing with actual blazar\u000aobservations we conclude that the magnetization of typical blazars is {\u005csigma}\u000a&lt;~ 0.01.\u000a</p>
p13
stp14
Rp15
sS'links'
p16
(lp17
g1
(g2
g3
(dp18
S'href'
p19
Vhttp://arxiv.org/abs/1111.6108
p20
sg9
S'text/html'
p21
sS'rel'
p22
S'alternate'
p23
stp24
Rp25
asS'title'
p26
VRadiative signature of magnetic fields in internal shocks. (arXiv:1111.6108v1 [astro-ph.HE])
p27
sS'author'
p28
V<a href="http://arxiv.org/find/astro-ph/1/au:+Mimica_P/0/1/0/all/0/1">P. Mimica</a>, <a href="http://arxiv.org/find/astro-ph/1/au:+Aloy_M/0/1/0/all/0/1">M. A. Aloy</a>
p29
sS'summary'
p30
V<p>Common models of blazars and gamma-ray bursts assume that the plasma\u000aunderlying the observed phenomenology is magnetized to some extent. Within this\u000acontext, radiative signatures of dissipation of kinetic and magnetic energy in\u000ainternal shocks of relativistic magnetized outflows are studied. We model\u000ainternal shocks as being caused by collisions of homogeneous plasma shells with\u000anon-zero relative velocity. We compute the flow state after the shell\u000ainteraction by solving Riemann problems at the contact surface between the\u000acolliding shells, and then compute the emission from the resulting shocks.\u000aUnder the assumption of a constant flow luminosity we find that there is a\u000aclear difference between the models where both shells are weakly magnetized\u000a({\u005csigma} &lt;~ 0.01) and those where, at least, one shell has a {\u005csigma} &gt;~ 0.01.\u000aWe obtain that the radiative efficiency is largest for models in which,\u000aregardless of the ordering, one shell is weakly and the other strongly\u000amagnetized. Substantial differences between weakly and strongly magnetized\u000ashell collisions are observed in the inverse-Compton part of the spectrum, as\u000awell as in the optical, X-ray and 1GeV light curves. We propose a way to\u000adistinguish observationally between weakly magnetized from magnetized internal\u000ashocks by comparing the maximum frequency of the inverse-Compton and\u000asynchrotron part of the spectrum to the ratio of the inverse-Compton and\u000asynchrotron fluence. Finally, our results suggest that LBL blazars may\u000acorrespond to barely magnetized flows, while HBL blazars could correspond to\u000amoderately magnetized ones. Indeed, by comparing with actual blazar\u000aobservations we conclude that the magnetization of typical blazars is {\u005csigma}\u000a&lt;~ 0.01.\u000a</p>
p31
sS'title_detail'
p32
g1
(g2
g3
(dp33
g7
Vhttp://export.arxiv.org/rss/astro-ph
p34
sg9
S'text/plain'
p35
sg11
Nsg12
g27
stp36
Rp37
sS'link'
p38
g20
sS'authors'
p39
(lp40
g1
(g2
g3
(dp41
tp42
Rp43
asS'author_detail'
p44
g1
(g2
g3
(dp45
S'name'
p46
g29
stp47
Rp48
sS'id'
p49
Vhttp://arxiv.org/abs/1111.6108
p50
stp51
Rp52
ag1
(g2
g3
(dp53
S'summary_detail'
p54
g1
(g2
g3
(dp55
g7
Vhttp://export.arxiv.org/rss/astro-ph
p56
sg9
S'text/html'
p57
sg11
Nsg12
V<p>At the core of the AGILE scientific instrument, designed to operate on a\u000asatellite, there is the Gamma Ray Imaging Detector (GRID) consisting of a\u000aSilicon Tracker (ST), a Cesium Iodide Mini-Calorimeter and an Anti-Coincidence\u000asystem of plastic scintillator bars. The ST needs an on-ground calibration with\u000aa $\u005cgamma$-ray beam to validate the simulation used to calculate the energy\u000aresponse function and the effective area versus the energy and the direction of\u000athe $\u005cgamma$ rays. A tagged $\u005cgamma$-ray beam line was designed at the Beam\u000aTest Facility (BTF) of the INFN Laboratori Nazionali of Frascati (LNF), based\u000aon an electron beam generating $\u005cgamma$ rays through Bremsstrahlung in a\u000aposition-sensitive target. The $\u005cgamma$-ray energy is deduced by difference\u000awith the post-Bremsstrahlung electron energy \u005ccite{prest}-\u005ccite{hasan}. The\u000aelectron energy is measured by a spectrometer consisting of a dipole magnet and\u000aan array of position sensitive silicon strip detectors, the Photon Tagging\u000aSystem (PTS). The use of the combined BTF-PTS system as tagged photon beam\u000arequires understanding the efficiency of $\u005cgamma$-ray tagging, the probability\u000aof fake tagging, the energy resolution and the relation of the PTS hit position\u000aversus the $\u005cgamma$-ray energy. This paper describes this study comparing data\u000ataken during the AGILE calibration occurred in 2005 with simulation.\u000a</p>
p58
stp59
Rp60
sg16
(lp61
g1
(g2
g3
(dp62
g19
Vhttp://arxiv.org/abs/1111.6147
p63
sg9
g21
sg22
g23
stp64
Rp65
asg26
VCharacterization of a tagged $\u005cgamma$-ray beam line at the DA$\u005cPhi$NE Beam Test Facility. (arXiv:1111.6147v1 [physics.ins-det])
p66
sg28
V<a href="http://arxiv.org/find/physics/1/au:+Cattaneo_P/0/1/0/all/0/1">P. W. Cattaneo</a>, <a href="http://arxiv.org/find/physics/1/au:+Argan_A/0/1/0/all/0/1">A. Argan</a>, <a href="http://arxiv.org/find/physics/1/au:+Boffelli_F/0/1/0/all/0/1">F. Boffelli</a>, <a href="http://arxiv.org/find/physics/1/au:+Bulgarelli_A/0/1/0/all/0/1">A. Bulgarelli</a>, <a href="http://arxiv.org/find/physics/1/au:+Buonomo_B/0/1/0/all/0/1">B. Buonomo</a>, <a href="http://arxiv.org/find/physics/1/au:+Chen_A/0/1/0/all/0/1">A. W. Chen</a>, <a href="http://arxiv.org/find/physics/1/au:+DAmmando_F/0/1/0/all/0/1">F. D&#x27;Ammando</a>, <a href="http://arxiv.org/find/physics/1/au:+Froysland_T/0/1/0/all/0/1">T. Froysland</a>, <a href="http://arxiv.org/find/physics/1/au:+Fuschino_F/0/1/0/all/0/1">F. Fuschino</a>, <a href="http://arxiv.org/find/physics/1/au:+Galli_M/0/1/0/all/0/1">M. Galli</a>, <a href="http://arxiv.org/find/physics/1/au:+Gianotti_F/0/1/0/all/0/1">F. Gianotti</a>, <a href="http://arxiv.org/find/physics/1/au:+Giuliani_A/0/1/0/all/0/1">A. Giuliani</a>, <a href="http://arxiv.org/find/physics/1/au:+Longo_F/0/1/0/all/0/1">F. Longo</a>, <a href="http://arxiv.org/find/physics/1/au:+Marisaldi_M/0/1/0/all/0/1">M. Marisaldi</a>, <a href="http://arxiv.org/find/physics/1/au:+Mazzitelli_G/0/1/0/all/0/1">G. Mazzitelli</a>, <a href="http://arxiv.org/find/physics/1/au:+Pellizzoni_A/0/1/0/all/0/1">A. Pellizzoni</a>, <a href="http://arxiv.org/find/physics/1/au:+Prest_M/0/1/0/all/0/1">M. Prest</a>, <a href="http://arxiv.org/find/physics/1/au:+Pucella_G/0/1/0/all/0/1">G. Pucella</a>, <a href="http://arxiv.org/find/physics/1/au:+Quintieri_L/0/1/0/all/0/1">L. Quintieri</a>, <a href="http://arxiv.org/find/physics/1/au:+Rappoldi_A/0/1/0/all/0/1">A. Rappoldi</a>, <a href="http://arxiv.org/find/physics/1/au:+Tavani_M/0/1/0/all/0/1">M. Tavani</a>, <a href="http://arxiv.org/find/physics/1/au:+Trifoglio_M/0/1/0/all/0/1">M. Trifoglio</a>, <a href="http://arxiv.org/find/physics/1/au:+Trois_A/0/1/0/all/0/1">A. Trois</a>, <a href="http://arxiv.org/find/physics/1/au:+Valente_P/0/1/0/all/0/1">P. Valente</a>, <a href="http://arxiv.org/find/physics/1/au:+Vallazza_E/0/1/0/all/0/1">E. Vallazza</a>, <a href="http://arxiv.org/find/physics/1/au:+Vercellone_S/0/1/0/all/0/1">S. Vercellone</a>, <a href="http://arxiv.org/find/physics/1/au:+Zambra_A/0/1/0/all/0/1">A. Zambra</a>, <a href="http://arxiv.org/find/physics/1/au:+Barbiellini_G/0/1/0/all/0/1">G. Barbiellini</a>, <a href="http://arxiv.org/find/physics/1/au:+Caraveo_P/0/1/0/all/0/1">P. Caraveo</a>, <a href="http://arxiv.org/find/physics/1/au:+Cocco_V/0/1/0/all/0/1">V. Cocco</a>, <a href="http://arxiv.org/find/physics/1/au:+Costa_E/0/1/0/all/0/1">E. Costa</a>, <a href="http://arxiv.org/find/physics/1/au:+Paris_G/0/1/0/all/0/1">G. De Paris</a>, <a href="http://arxiv.org/find/physics/1/au:+Monte_E/0/1/0/all/0/1">E. Del Monte</a>, <a href="http://arxiv.org/find/physics/1/au:+Cocco_G/0/1/0/all/0/1">G. Di Cocco</a>, <a href="http://arxiv.org/find/physics/1/au:+Donnarumma_I/0/1/0/all/0/1">I. Donnarumma</a>, <a href="http://arxiv.org/find/physics/1/au:+Evangelista_Y/0/1/0/all/0/1">Y. Evangelista</a>, <a href="http://arxiv.org/find/physics/1/au:+Feroci_M/0/1/0/all/0/1">M. Feroci</a>, <a href="http://arxiv.org/find/physics/1/au:+Ferrari_A/0/1/0/all/0/1">A. Ferrari</a>, <a href="http://arxiv.org/find/physics/1/au:+Fiorini_M/0/1/0/all/0/1">M. Fiorini</a>, <a href="http://arxiv.org/find/physics/1/au:+Labanti_C/0/1/0/all/0/1">C. Labanti</a>, <a href="http://arxiv.org/find/physics/1/au:+Lapshov_I/0/1/0/all/0/1">I. Lapshov</a>, <a href="http://arxiv.org/find/physics/1/au:+Lazzarotto_F/0/1/0/all/0/1">F. Lazzarotto</a>, <a href="http://arxiv.org/find/physics/1/au:+Lipari_P/0/1/0/all/0/1">P. Lipari</a>, <a href="http://arxiv.org/find/physics/1/au:+Mastropietro_M/0/1/0/all/0/1">M. Mastropietro</a>, <a href="http://arxiv.org/find/physics/1/au:+Mereghetti_S/0/1/0/all/0/1">S. Mereghetti</a>, <a href="http://arxiv.org/find/physics/1/au:+Morelli_E/0/1/0/all/0/1">E. Morelli</a>, <a href="http://arxiv.org/find/physics/1/au:+Moretti_E/0/1/0/all/0/1">E. Moretti</a>, <a href="http://arxiv.org/find/physics/1/au:+Morselli_A/0/1/0/all/0/1">A. Morselli</a>, <a href="http://arxiv.org/find/physics/1/au:+Pacciani_L/0/1/0/all/0/1">L. Pacciani</a>, <a href="http://arxiv.org/find/physics/1/au:+Perotti_F/0/1/0/all/0/1">F. Perotti</a>, <a href="http://arxiv.org/find/physics/1/au:+Piano_G/0/1/0/all/0/1">G. Piano</a>, <a href="http://arxiv.org/find/physics/1/au:+Picozza_P/0/1/0/all/0/1">P. Picozza</a>, <a href="http://arxiv.org/find/physics/1/au:+Pilia_M/0/1/0/all/0/1">M. Pilia</a>, <a href="http://arxiv.org/find/physics/1/au:+Porrovecchio_G/0/1/0/all/0/1">G. Porrovecchio</a>, <a href="http://arxiv.org/find/physics/1/au:+Rapisarda_M/0/1/0/all/0/1">M. Rapisarda</a>, <a href="http://arxiv.org/find/physics/1/au:+Rubini_A/0/1/0/all/0/1">A. Rubini</a>, <a href="http://arxiv.org/find/physics/1/au:+Sabatini_S/0/1/0/all/0/1">S. Sabatini</a>, <a href="http://arxiv.org/find/physics/1/au:+Soffitta_P/0/1/0/all/0/1">P. Soffitta</a>, <a href="http://arxiv.org/find/physics/1/au:+Striani_E/0/1/0/all/0/1">E. Striani</a>, <a href="http://arxiv.org/find/physics/1/au:+Vittorini_V/0/1/0/all/0/1">V. Vittorini</a>, <a href="http://arxiv.org/find/physics/1/au:+Zanello_D/0/1/0/all/0/1">D. Zanello</a>, <a href="http://arxiv.org/find/physics/1/au:+Colafrancesco_S/0/1/0/all/0/1">S. Colafrancesco</a>, et al. (5 additional authors not shown)
p67
sg30
V<p>At the core of the AGILE scientific instrument, designed to operate on a\u000asatellite, there is the Gamma Ray Imaging Detector (GRID) consisting of a\u000aSilicon Tracker (ST), a Cesium Iodide Mini-Calorimeter and an Anti-Coincidence\u000asystem of plastic scintillator bars. The ST needs an on-ground calibration with\u000aa $\u005cgamma$-ray beam to validate the simulation used to calculate the energy\u000aresponse function and the effective area versus the energy and the direction of\u000athe $\u005cgamma$ rays. A tagged $\u005cgamma$-ray beam line was designed at the Beam\u000aTest Facility (BTF) of the INFN Laboratori Nazionali of Frascati (LNF), based\u000aon an electron beam generating $\u005cgamma$ rays through Bremsstrahlung in a\u000aposition-sensitive target. The $\u005cgamma$-ray energy is deduced by difference\u000awith the post-Bremsstrahlung electron energy \u005ccite{prest}-\u005ccite{hasan}. The\u000aelectron energy is measured by a spectrometer consisting of a dipole magnet and\u000aan array of position sensitive silicon strip detectors, the Photon Tagging\u000aSystem (PTS). The use of the combined BTF-PTS system as tagged photon beam\u000arequires understanding the efficiency of $\u005cgamma$-ray tagging, the probability\u000aof fake tagging, the energy resolution and the relation of the PTS hit position\u000aversus the $\u005cgamma$-ray energy. This paper describes this study comparing data\u000ataken during the AGILE calibration occurred in 2005 with simulation.\u000a</p>
p68
sS'title_detail'
p69
g1
(g2
g3
(dp70
g7
Vhttp://export.arxiv.org/rss/astro-ph
p71
sg9
S'text/plain'
p72
sg11
Nsg12
VCharacterization of a tagged $\u005cgamma$-ray beam line at the DA$\u005cPhi$NE Beam Test Facility. (arXiv:1111.6147v1 [physics.ins-det])
p73
stp74
Rp75
sg38
g63
sg39
(lp76
g1
(g2
g3
(dp77
tp78
Rp79
asS'author_detail'
p80
g1
(g2
g3
(dp81
g46
g67
stp82
Rp83
sg49
Vhttp://arxiv.org/abs/1111.6147
p84
stp85
Rp86
ag1
(g2
g3
(dp87
S'summary_detail'
p88
g1
(g2
g3
(dp89
g7
Vhttp://export.arxiv.org/rss/astro-ph
p90
sg9
S'text/html'
p91
sg11
Nsg12
V<p>The large scatters of luminosity relations of gamma-ray bursts (GRBs) have\u000abeen one of the most important reasons that prevent the extensive applications\u000aof GRBs in cosmology. Many efforts have been made to seek tight luminosity\u000arelations. With the latest sample of 116 GRBs, we investigated 6\u000atwo-dimensional (2D) correlations and 14 derived three-dimensional (3D)\u000acorrelations of GRBs to explore the possibility of decreasing the intrinsic\u000ascatters of the luminosity relations of GRBs. We found the 3D correlation of\u000a$E_{\u005cmathrm{peak}}$--$\u005ctau_{\u005cmathrm{RT}}$--$L$ to be significantly tighter (at\u000a$2 \u005csigma$ confidence level) than its corresponding 2D correlations, i.e., the\u000a$E_{\u005cmathrm{peak}}$--$L$ and $\u005ctau_{\u005cmathrm{RT}}$--$L$ correlation. In\u000aaddition, the coefficients before the logarithms of $E_{\u005cmathrm{peak}}$ and\u000a$\u005ctau_{\u005cmathrm{RT}}$ in the $E_{\u005cmathrm{peak}}$--$\u005ctau_{\u005cmathrm{RT}}$--$L$\u000acorrelation are almost exactly opposite to each other. Inputting this situation\u000aas a prior reduces the relation to $L \u005cpropto (E_{\u005cmathrm{peak}}^{'} /\u000a\u005ctau_{\u005cmathrm{RT}}^{'})^{0.842 \u005cpm 0.064}$, where $E_{\u005cmathrm{peak}}^{'}$ and\u000a$\u005ctau_{\u005cmathrm{RT}}^{'}$ denote the peak energy and minimum rise time in the\u000aGRB rest frame. We discussed that what we found can be interpreted/understood\u000ain the framework of the definition of the luminosity (energy released in units\u000aof time). Our argument about the connection between the luminosity relations of\u000aGRBs and the definition of the luminosity provides a clear direction for\u000aexploring tighter luminosity relations of GRBs in the future.\u000a</p>
p92
stp93
Rp94
sg16
(lp95
g1
(g2
g3
(dp96
g19
Vhttp://arxiv.org/abs/1111.6249
p97
sg9
g21
sg22
g23
stp98
Rp99
asg26
VToward tight gamma-ray burst luminosity relations. (arXiv:1111.6249v1 [astro-ph.CO])
p100
sg28
V<a href="http://arxiv.org/find/astro-ph/1/au:+Qi_S/0/1/0/all/0/1">Shi Qi</a>, <a href="http://arxiv.org/find/astro-ph/1/au:+Lu_T/0/1/0/all/0/1">Tan Lu</a>
p101
sg30
V<p>The large scatters of luminosity relations of gamma-ray bursts (GRBs) have\u000abeen one of the most important reasons that prevent the extensive applications\u000aof GRBs in cosmology. Many efforts have been made to seek tight luminosity\u000arelations. With the latest sample of 116 GRBs, we investigated 6\u000atwo-dimensional (2D) correlations and 14 derived three-dimensional (3D)\u000acorrelations of GRBs to explore the possibility of decreasing the intrinsic\u000ascatters of the luminosity relations of GRBs. We found the 3D correlation of\u000a$E_{\u005cmathrm{peak}}$--$\u005ctau_{\u005cmathrm{RT}}$--$L$ to be significantly tighter (at\u000a$2 \u005csigma$ confidence level) than its corresponding 2D correlations, i.e., the\u000a$E_{\u005cmathrm{peak}}$--$L$ and $\u005ctau_{\u005cmathrm{RT}}$--$L$ correlation. In\u000aaddition, the coefficients before the logarithms of $E_{\u005cmathrm{peak}}$ and\u000a$\u005ctau_{\u005cmathrm{RT}}$ in the $E_{\u005cmathrm{peak}}$--$\u005ctau_{\u005cmathrm{RT}}$--$L$\u000acorrelation are almost exactly opposite to each other. Inputting this situation\u000aas a prior reduces the relation to $L \u005cpropto (E_{\u005cmathrm{peak}}^{'} /\u000a\u005ctau_{\u005cmathrm{RT}}^{'})^{0.842 \u005cpm 0.064}$, where $E_{\u005cmathrm{peak}}^{'}$ and\u000a$\u005ctau_{\u005cmathrm{RT}}^{'}$ denote the peak energy and minimum rise time in the\u000aGRB rest frame. We discussed that what we found can be interpreted/understood\u000ain the framework of the definition of the luminosity (energy released in units\u000aof time). Our argument about the connection between the luminosity relations of\u000aGRBs and the definition of the luminosity provides a clear direction for\u000aexploring tighter luminosity relations of GRBs in the future.\u000a</p>
p102
sS'title_detail'
p103
g1
(g2
g3
(dp104
g7
Vhttp://export.arxiv.org/rss/astro-ph
p105
sg9
S'text/plain'
p106
sg11
Nsg12
g100
stp107
Rp108
sg38
g97
sg39
(lp109
g1
(g2
g3
(dp110
tp111
Rp112
asS'author_detail'
p113
g1
(g2
g3
(dp114
g46
g101
stp115
Rp116
sg49
Vhttp://arxiv.org/abs/1111.6249
p117
stp118
Rp119
ag1
(g2
g3
(dp120
S'summary_detail'
p121
g1
(g2
g3
(dp122
g7
Vhttp://export.arxiv.org/rss/astro-ph
p123
sg9
S'text/html'
p124
sg11
Nsg12
V<p>Gamma-ray Astronomy studies cosmic accelerators through their electromagnetic\u000aradiation in the energy range between ~100 MeV and ~100 TeV. The present most\u000asensitive observations in this energy band are performed, from space, by the\u000aLarge Area Telescope onboard the Fermi satellite and, from Earth, by the\u000aImaging Air Cherenkov Telescopes MAGIC, H.E.S.S. and VERITAS. These instruments\u000ahave revolutionized the field of Gamma-ray Astronomy, discovering different\u000apopulations of gamma-ray emitters and studying in detail the non-thermal\u000aastrophysical processes producing this high-energy radiation. The scientific\u000aobjectives of these observatories include also questions of fundamental\u000aphysics. With gamma-ray instruments we study the origin of Galactic cosmic\u000arays, testing the hypothesis or whether they are mainly produced in supernova\u000aexplosions. Also, we obtain the most sensitive measurement of the cosmic\u000aelectron-positron spectrum between 20 GeV and 5 TeV. By observing the gamma-ray\u000aemission from sources at cosmological distances, we learn about the intensity\u000aand evolution of the extragalactic background light, and perform tests of\u000aLorentz Invariance. Moreover, we can search for dark matter by looking for\u000agamma-ray signals produced by its annihilation or decay in over-density sites.\u000aIn this paper, we review the most recent results produced with the current\u000ageneration of gamma-ray instruments in these fields of research.\u000a</p>
p125
stp126
Rp127
sg16
(lp128
g1
(g2
g3
(dp129
g19
Vhttp://arxiv.org/abs/1111.6393
p130
sg9
g21
sg22
g23
stp131
Rp132
asg26
VGamma-ray Astronomy: Implications for Fundamental Physics. (arXiv:1111.6393v1 [astro-ph.HE])
p133
sg28
V<a href="http://arxiv.org/find/astro-ph/1/au:+Rico_J/0/1/0/all/0/1">Javier Rico</a>
p134
sg30
V<p>Gamma-ray Astronomy studies cosmic accelerators through their electromagnetic\u000aradiation in the energy range between ~100 MeV and ~100 TeV. The present most\u000asensitive observations in this energy band are performed, from space, by the\u000aLarge Area Telescope onboard the Fermi satellite and, from Earth, by the\u000aImaging Air Cherenkov Telescopes MAGIC, H.E.S.S. and VERITAS. These instruments\u000ahave revolutionized the field of Gamma-ray Astronomy, discovering different\u000apopulations of gamma-ray emitters and studying in detail the non-thermal\u000aastrophysical processes producing this high-energy radiation. The scientific\u000aobjectives of these observatories include also questions of fundamental\u000aphysics. With gamma-ray instruments we study the origin of Galactic cosmic\u000arays, testing the hypothesis or whether they are mainly produced in supernova\u000aexplosions. Also, we obtain the most sensitive measurement of the cosmic\u000aelectron-positron spectrum between 20 GeV and 5 TeV. By observing the gamma-ray\u000aemission from sources at cosmological distances, we learn about the intensity\u000aand evolution of the extragalactic background light, and perform tests of\u000aLorentz Invariance. Moreover, we can search for dark matter by looking for\u000agamma-ray signals produced by its annihilation or decay in over-density sites.\u000aIn this paper, we review the most recent results produced with the current\u000ageneration of gamma-ray instruments in these fields of research.\u000a</p>
p135
sS'title_detail'
p136
g1
(g2
g3
(dp137
g7
Vhttp://export.arxiv.org/rss/astro-ph
p138
sg9
S'text/plain'
p139
sg11
Nsg12
g133
stp140
Rp141
sg38
g130
sg39
(lp142
g1
(g2
g3
(dp143
tp144
Rp145
asS'author_detail'
p146
g1
(g2
g3
(dp147
g46
g134
stp148
Rp149
sg49
Vhttp://arxiv.org/abs/1111.6393
p150
stp151
Rp152
ag152
ag1
(g2
g3
(dp153
S'summary_detail'
p154
g1
(g2
g3
(dp155
g7
Vhttp://export.arxiv.org/rss/astro-ph
p156
sg9
S'text/html'
p157
sg11
Nsg12
V<p>We present an analysis of the unusual optical light curve of the gamma-ray\u000aburst GRB 081029, a long-soft burst with a redshift of z = 3.8479. We combine\u000aX-ray and optical observations from the Swift X-Ray Telescope and the Swift\u000aUltraViolet/Optical Telescope with ground-based optical and infrared data\u000aobtained using the REM, ROTSE, and CTIO 1.3-m telescopes to construct a\u000adetailed data set extending from 86 s to approximately 100,000 s after the BAT\u000atrigger. Our data cover a wide energy range, from 10 keV to 0.77 eV (1.24 to\u000a16,000 Angstrom). The X-ray afterglow shows a shallow initial decay followed by\u000aa rapid decay starting at about 18,000 s. The optical and infrared afterglow,\u000ahowever, shows an uncharacteristic rise at about 3000 s that does not\u000acorrespond to any feature in the X-ray light curve. Our data are not consistent\u000awith synchrotron radiation from a jet interacting with an external medium, a\u000atwo-component jet, or continuous energy injection from the central engine. We\u000afind that the optical light curves can be broadly explained by a collision\u000abetween two ejecta shells within a two-component jet. A growing number of\u000agamma-ray burst afterglows are consistent with complex jets, which suggests\u000athat some (or all) gamma-ray burst jets are complex and will require detailed\u000amodelling to fully understand them.\u000a</p>
p158
stp159
Rp160
sg16
(lp161
g1
(g2
g3
(dp162
g19
Vhttp://arxiv.org/abs/1111.6484
p163
sg9
g21
sg22
g23
stp164
Rp165
asg26
VGRB 081029: A Gamma-Ray Burst with a Multi-Component Afterglow. (arXiv:1111.6484v1 [astro-ph.HE])
p166
sg28
V<a href="http://arxiv.org/find/astro-ph/1/au:+Holland_S/0/1/0/all/0/1">Stephen T. Holland</a>, <a href="http://arxiv.org/find/astro-ph/1/au:+Pasquale_M/0/1/0/all/0/1">Massimiliano De Pasquale</a>, <a href="http://arxiv.org/find/astro-ph/1/au:+Mao_J/0/1/0/all/0/1">Jirong Mao</a>, <a href="http://arxiv.org/find/astro-ph/1/au:+Sakamoto_T/0/1/0/all/0/1">Takanori Sakamoto</a>, <a href="http://arxiv.org/find/astro-ph/1/au:+Schady_P/0/1/0/all/0/1">Patricia Schady</a>, <a href="http://arxiv.org/find/astro-ph/1/au:+Covino_S/0/1/0/all/0/1">Stefano Covino</a>, <a href="http://arxiv.org/find/astro-ph/1/au:+Fan_Y/0/1/0/all/0/1">Yi-Zhong Fan</a>, <a href="http://arxiv.org/find/astro-ph/1/au:+Jin_Z/0/1/0/all/0/1">Zhi Ping Jin</a>, <a href="http://arxiv.org/find/astro-ph/1/au:+DAvanzo_P/0/1/0/all/0/1">Paolo D&#x27;Avanzo</a>, <a href="http://arxiv.org/find/astro-ph/1/au:+Antonelli_A/0/1/0/all/0/1">Angelo Antonelli</a>, <a href="http://arxiv.org/find/astro-ph/1/au:+DElia_V/0/1/0/all/0/1">Valerio D&#x27;Elia</a>, <a href="http://arxiv.org/find/astro-ph/1/au:+Chincarini_G/0/1/0/all/0/1">Guido Chincarini</a>, <a href="http://arxiv.org/find/astro-ph/1/au:+Fiore_F/0/1/0/all/0/1">Fabrizio Fiore</a>, <a href="http://arxiv.org/find/astro-ph/1/au:+Pandey_S/0/1/0/all/0/1">Shashi Bhushan Pandey</a>, <a href="http://arxiv.org/find/astro-ph/1/au:+Cobb_B/0/1/0/all/0/1">Bethany E. Cobb</a>
p167
sg30
V<p>We present an analysis of the unusual optical light curve of the gamma-ray\u000aburst GRB 081029, a long-soft burst with a redshift of z = 3.8479. We combine\u000aX-ray and optical observations from the Swift X-Ray Telescope and the Swift\u000aUltraViolet/Optical Telescope with ground-based optical and infrared data\u000aobtained using the REM, ROTSE, and CTIO 1.3-m telescopes to construct a\u000adetailed data set extending from 86 s to approximately 100,000 s after the BAT\u000atrigger. Our data cover a wide energy range, from 10 keV to 0.77 eV (1.24 to\u000a16,000 Angstrom). The X-ray afterglow shows a shallow initial decay followed by\u000aa rapid decay starting at about 18,000 s. The optical and infrared afterglow,\u000ahowever, shows an uncharacteristic rise at about 3000 s that does not\u000acorrespond to any feature in the X-ray light curve. Our data are not consistent\u000awith synchrotron radiation from a jet interacting with an external medium, a\u000atwo-component jet, or continuous energy injection from the central engine. We\u000afind that the optical light curves can be broadly explained by a collision\u000abetween two ejecta shells within a two-component jet. A growing number of\u000agamma-ray burst afterglows are consistent with complex jets, which suggests\u000athat some (or all) gamma-ray burst jets are complex and will require detailed\u000amodelling to fully understand them.\u000a</p>
p168
sS'title_detail'
p169
g1
(g2
g3
(dp170
g7
Vhttp://export.arxiv.org/rss/astro-ph
p171
sg9
S'text/plain'
p172
sg11
Nsg12
g166
stp173
Rp174
sg38
g163
sg39
(lp175
g1
(g2
g3
(dp176
tp177
Rp178
asS'author_detail'
p179
g1
(g2
g3
(dp180
g46
g167
stp181
Rp182
sg49
Vhttp://arxiv.org/abs/1111.6484
p183
stp184
Rp185
ag1
(g2
g3
(dp186
S'summary_detail'
p187
g1
(g2
g3
(dp188
g7
Vhttp://export.arxiv.org/rss/astro-ph
p189
sg9
S'text/html'
p190
sg11
Nsg12
V<p>In examining a select sample of over 200 blazars of known jet kinetic power\u000a(L_kin) and well-characterized SEDs, we found (Meyer et al., 2011) that\u000aIntermediate synchrotron-peaking (ISP) blazars may have lower gamma-ray output\u000athan high synchrotron-peaking (HSP) blazars of similar L_kin, consistent with\u000aour hypothesis that ISP blazars are less-beamed versions of HSP blazars, rather\u000athan a distinct population. Further, by using the radio core dominance as a\u000ameasure of relative beaming, we find that gamma-ray luminosity depends on\u000abeaming in a consistent way for blazars ranging over all jet kinetic powers\u000a(10^42 - 10^46 ergs/s). We re-examine the gamma-ray properties of this core\u000asample of blazars using the 1-year LAT catalog (Abdo et al., 2010). We find\u000athat for weak jets, the ratio of inverse Compton to synchrotron emission\u000aremains constant with increased beaming, consistent with an SSC model for the\u000ajet emission, while the most powerful jets show a strong increase in Compton\u000adominance with orientation, consistent with an external Compton (EC) emission\u000amodel.\u000a</p>
p191
stp192
Rp193
sg16
(lp194
g1
(g2
g3
(dp195
g19
Vhttp://arxiv.org/abs/1111.6490
p196
sg9
g21
sg22
g23
stp197
Rp198
asg26
VGamma-ray Clues to the Relativistic Jet Dichotomy. (arXiv:1111.6490v1 [astro-ph.HE])
p199
sg28
V<a href="http://arxiv.org/find/astro-ph/1/au:+Meyer_E/0/1/0/all/0/1">Eileen T. Meyer</a>, <a href="http://arxiv.org/find/astro-ph/1/au:+Fossati_G/0/1/0/all/0/1">Giovanni Fossati</a>, <a href="http://arxiv.org/find/astro-ph/1/au:+Georganopoulos_M/0/1/0/all/0/1">Markos Georganopoulos</a>, <a href="http://arxiv.org/find/astro-ph/1/au:+Lister_M/0/1/0/all/0/1">Matthew L. Lister</a>
p200
sg30
V<p>In examining a select sample of over 200 blazars of known jet kinetic power\u000a(L_kin) and well-characterized SEDs, we found (Meyer et al., 2011) that\u000aIntermediate synchrotron-peaking (ISP) blazars may have lower gamma-ray output\u000athan high synchrotron-peaking (HSP) blazars of similar L_kin, consistent with\u000aour hypothesis that ISP blazars are less-beamed versions of HSP blazars, rather\u000athan a distinct population. Further, by using the radio core dominance as a\u000ameasure of relative beaming, we find that gamma-ray luminosity depends on\u000abeaming in a consistent way for blazars ranging over all jet kinetic powers\u000a(10^42 - 10^46 ergs/s). We re-examine the gamma-ray properties of this core\u000asample of blazars using the 1-year LAT catalog (Abdo et al., 2010). We find\u000athat for weak jets, the ratio of inverse Compton to synchrotron emission\u000aremains constant with increased beaming, consistent with an SSC model for the\u000ajet emission, while the most powerful jets show a strong increase in Compton\u000adominance with orientation, consistent with an external Compton (EC) emission\u000amodel.\u000a</p>
p201
sS'title_detail'
p202
g1
(g2
g3
(dp203
g7
Vhttp://export.arxiv.org/rss/astro-ph
p204
sg9
S'text/plain'
p205
sg11
Nsg12
g199
stp206
Rp207
sg38
g196
sg39
(lp208
g1
(g2
g3
(dp209
tp210
Rp211
asS'author_detail'
p212
g1
(g2
g3
(dp213
g46
g200
stp214
Rp215
sg49
Vhttp://arxiv.org/abs/1111.6490
p216
stp217
Rp218
ag1
(g2
g3
(dp219
S'summary_detail'
p220
g1
(g2
g3
(dp221
g7
Vhttp://export.arxiv.org/rss/astro-ph
p222
sg9
S'text/html'
p223
sg11
Nsg12
V<p>Recent observations reveal that spectral breaks at ~GeV are commonly present\u000ain Galactic gamma-ray supernova remnants (SNRs) interacting with molecular\u000aclouds and that most of them have a spectral ($E^2dF/dE$) "platform" extended\u000afrom the break to lower energies. In paper I (Li &amp; Chen 2010), we developed an\u000aaccumulative diffusion model by considering an accumulation of the diffusive\u000aprotons escaping from the shock front throughout the history of the SNR\u000aexpansion. In this paper, we improve the model by incorporating finite-volume\u000aof MCs, demonstrate the model dependence on particle diffusion parameters and\u000acloud size, and apply it to nine interacting SNRs (W28, W41, W44, W49B, W51C,\u000aCygnus Loop, IC443, CTB 37A, and G349.7+0.2). This refined model naturally\u000aexplains the GeV spectral breaks and, especially, the "platform"s, together\u000awith available TeV data. We find that the index of the diffusion coeffcient\u000a\u005cdelta\u005c is in the range of 0.5-0.7, similar to the galactic averaged value, and\u000athe diffusion coefficient for cosmic rays around the SNRs is essentially two\u000aorders of magnitude lower than the Galactic average, which is a good indication\u000afor the suppression of cosmic ray diffusion near SNRs.\u000a</p>
p224
stp225
Rp226
sg16
(lp227
g1
(g2
g3
(dp228
g19
Vhttp://arxiv.org/abs/1108.4541
p229
sg9
g21
sg22
g23
stp230
Rp231
asg26
VGamma-rays from molecular clouds illuminated by accumulated diffusive protons. II: interacting supernova remnants. (arXiv:1108.4541v3 [astro-ph.HE] UPDATED)
p232
sg28
V<a href="http://arxiv.org/find/astro-ph/1/au:+Li_H/0/1/0/all/0/1">Hui Li</a>, <a href="http://arxiv.org/find/astro-ph/1/au:+Chen_Y/0/1/0/all/0/1">Yang Chen</a> (Nanjing University)
p233
sg30
V<p>Recent observations reveal that spectral breaks at ~GeV are commonly present\u000ain Galactic gamma-ray supernova remnants (SNRs) interacting with molecular\u000aclouds and that most of them have a spectral ($E^2dF/dE$) "platform" extended\u000afrom the break to lower energies. In paper I (Li &amp; Chen 2010), we developed an\u000aaccumulative diffusion model by considering an accumulation of the diffusive\u000aprotons escaping from the shock front throughout the history of the SNR\u000aexpansion. In this paper, we improve the model by incorporating finite-volume\u000aof MCs, demonstrate the model dependence on particle diffusion parameters and\u000acloud size, and apply it to nine interacting SNRs (W28, W41, W44, W49B, W51C,\u000aCygnus Loop, IC443, CTB 37A, and G349.7+0.2). This refined model naturally\u000aexplains the GeV spectral breaks and, especially, the "platform"s, together\u000awith available TeV data. We find that the index of the diffusion coeffcient\u000a\u005cdelta\u005c is in the range of 0.5-0.7, similar to the galactic averaged value, and\u000athe diffusion coefficient for cosmic rays around the SNRs is essentially two\u000aorders of magnitude lower than the Galactic average, which is a good indication\u000afor the suppression of cosmic ray diffusion near SNRs.\u000a</p>
p234
sS'title_detail'
p235
g1
(g2
g3
(dp236
g7
Vhttp://export.arxiv.org/rss/astro-ph
p237
sg9
S'text/plain'
p238
sg11
Nsg12
g232
stp239
Rp240
sg38
g229
sg39
(lp241
g1
(g2
g3
(dp242
tp243
Rp244
asS'author_detail'
p245
g1
(g2
g3
(dp246
g46
g233
stp247
Rp248
sg49
Vhttp://arxiv.org/abs/1108.4541
p249
stp250
Rp251
ag1
(g2
g3
(dp252
S'summary_detail'
p253
g1
(g2
g3
(dp254
g7
Vhttp://export.arxiv.org/rss/astro-ph
p255
sg9
S'text/html'
p256
sg11
Nsg12
V<p>We present the results of sixteen Swift-triggered GRB follow-up observations\u000ataken with the VERITAS telescope array from January, 2007 to June, 2009. The\u000amedian energy threshold and response time of these observations was 260 GeV and\u000a320 s, respectively. Observations had an average duration of 90 minutes. Each\u000aburst is analyzed independently in two modes: over the whole duration of the\u000aobservations and again over a shorter time scale determined by the maximum\u000aVERITAS sensitivity to a burst with a t^-1.5 time profile. This temporal model\u000ais characteristic of GRB afterglows with high-energy, long-lived emission that\u000ahave been detected by the Large Area Telescope (LAT) on-board the Fermi\u000asatellite. No significant VHE gamma-ray emission was detected and upper limits\u000aabove the VERITAS threshold energy are calculated. The VERITAS upper limits are\u000acorrected for gamma-ray extinction by the extragalactic background light (EBL)\u000aand interpreted in the context of the keV emission detected by Swift. For some\u000abursts the VHE emission must have less power than the keV emission, placing\u000aconstraints on inverse Compton models of VHE emission.\u000a</p>
p257
stp258
Rp259
sg16
(lp260
g1
(g2
g3
(dp261
g19
Vhttp://arxiv.org/abs/1109.0050
p262
sg9
g21
sg22
g23
stp263
Rp264
asg26
VVERITAS Observations of Gamma-Ray Bursts Detected by Swift. (arXiv:1109.0050v2 [astro-ph.HE] UPDATED)
p265
sg28
V<a href="http://arxiv.org/find/astro-ph/1/au:+Collaboration_VERITAS/0/1/0/all/0/1">VERITAS Collaboration</a>: <a href="http://arxiv.org/find/astro-ph/1/au:+Acciari_V/0/1/0/all/0/1">V. A. Acciari</a>, <a href="http://arxiv.org/find/astro-ph/1/au:+Aliu_E/0/1/0/all/0/1">E. Aliu</a>, <a href="http://arxiv.org/find/astro-ph/1/au:+Arlen_T/0/1/0/all/0/1">T. Arlen</a>, <a href="http://arxiv.org/find/astro-ph/1/au:+Aune_T/0/1/0/all/0/1">T. Aune</a>, <a href="http://arxiv.org/find/astro-ph/1/au:+Beilicke_M/0/1/0/all/0/1">M. Beilicke</a>, <a href="http://arxiv.org/find/astro-ph/1/au:+Benbow_W/0/1/0/all/0/1">W. Benbow</a>, <a href="http://arxiv.org/find/astro-ph/1/au:+Bradbury_S/0/1/0/all/0/1">S. M. Bradbury</a>, <a href="http://arxiv.org/find/astro-ph/1/au:+Buckley_J/0/1/0/all/0/1">J. H. Buckley</a>, <a href="http://arxiv.org/find/astro-ph/1/au:+Bugaev_V/0/1/0/all/0/1">V. Bugaev</a>, <a href="http://arxiv.org/find/astro-ph/1/au:+Byrum_K/0/1/0/all/0/1">K. Byrum</a>, <a href="http://arxiv.org/find/astro-ph/1/au:+Cannon_A/0/1/0/all/0/1">A. Cannon</a>, <a href="http://arxiv.org/find/astro-ph/1/au:+Cesarini_A/0/1/0/all/0/1">A. Cesarini</a>, <a href="http://arxiv.org/find/astro-ph/1/au:+Christiansen_J/0/1/0/all/0/1">J. L. Christiansen</a>, <a href="http://arxiv.org/find/astro-ph/1/au:+Ciupik_L/0/1/0/all/0/1">L. Ciupik</a>, <a href="http://arxiv.org/find/astro-ph/1/au:+Collins_Hughes_E/0/1/0/all/0/1">E. Collins-Hughes</a>, <a href="http://arxiv.org/find/astro-ph/1/au:+Connolly_M/0/1/0/all/0/1">M. P. Connolly</a>, <a href="http://arxiv.org/find/astro-ph/1/au:+Cui_W/0/1/0/all/0/1">W. Cui</a>, <a href="http://arxiv.org/find/astro-ph/1/au:+Duke_C/0/1/0/all/0/1">C. Duke</a>, <a href="http://arxiv.org/find/astro-ph/1/au:+Errando_M/0/1/0/all/0/1">M. Errando</a>, <a href="http://arxiv.org/find/astro-ph/1/au:+Falcone_A/0/1/0/all/0/1">A. Falcone</a>, <a href="http://arxiv.org/find/astro-ph/1/au:+Finley_J/0/1/0/all/0/1">J. P. Finley</a>, <a href="http://arxiv.org/find/astro-ph/1/au:+Finnegan_G/0/1/0/all/0/1">G. Finnegan</a>, <a href="http://arxiv.org/find/astro-ph/1/au:+Fortson_L/0/1/0/all/0/1">L. Fortson</a>, <a href="http://arxiv.org/find/astro-ph/1/au:+Furniss_A/0/1/0/all/0/1">A. Furniss</a>, <a href="http://arxiv.org/find/astro-ph/1/au:+Galante_N/0/1/0/all/0/1">N. Galante</a>, <a href="http://arxiv.org/find/astro-ph/1/au:+Gall_D/0/1/0/all/0/1">D. Gall</a>, <a href="http://arxiv.org/find/astro-ph/1/au:+Godambe_S/0/1/0/all/0/1">S. Godambe</a>, <a href="http://arxiv.org/find/astro-ph/1/au:+Griffin_S/0/1/0/all/0/1">S. Griffin</a>, <a href="http://arxiv.org/find/astro-ph/1/au:+Grube_J/0/1/0/all/0/1">J. Grube</a>, <a href="http://arxiv.org/find/astro-ph/1/au:+Guenette_R/0/1/0/all/0/1">R. Guenette</a>, <a href="http://arxiv.org/find/astro-ph/1/au:+Gyuk_G/0/1/0/all/0/1">G. Gyuk</a>, <a href="http://arxiv.org/find/astro-ph/1/au:+Hanna_D/0/1/0/all/0/1">D. Hanna</a>, <a href="http://arxiv.org/find/astro-ph/1/au:+Holder_J/0/1/0/all/0/1">J. Holder</a>, <a href="http://arxiv.org/find/astro-ph/1/au:+Hughes_G/0/1/0/all/0/1">G. Hughes</a>, <a href="http://arxiv.org/find/astro-ph/1/au:+Hui_C/0/1/0/all/0/1">C. M. Hui</a>, <a href="http://arxiv.org/find/astro-ph/1/au:+Humensky_T/0/1/0/all/0/1">T. B. Humensky</a>, <a href="http://arxiv.org/find/astro-ph/1/au:+Jackson_D/0/1/0/all/0/1">D. J. Jackson</a>, <a href="http://arxiv.org/find/astro-ph/1/au:+Kaaret_P/0/1/0/all/0/1">P. Kaaret</a>, <a href="http://arxiv.org/find/astro-ph/1/au:+Karlsson_N/0/1/0/all/0/1">N. Karlsson</a>, <a href="http://arxiv.org/find/astro-ph/1/au:+Kertzman_M/0/1/0/all/0/1">M. Kertzman</a>, <a href="http://arxiv.org/find/astro-ph/1/au:+Kieda_D/0/1/0/all/0/1">D. Kieda</a>, <a href="http://arxiv.org/find/astro-ph/1/au:+Krawczynski_H/0/1/0/all/0/1">H. Krawczynski</a>, <a href="http://arxiv.org/find/astro-ph/1/au:+Krennrich_F/0/1/0/all/0/1">F. Krennrich</a>, <a href="http://arxiv.org/find/astro-ph/1/au:+Lang_M/0/1/0/all/0/1">M. J. Lang</a>, <a href="http://arxiv.org/find/astro-ph/1/au:+Madhavan_A/0/1/0/all/0/1">A. S Madhavan</a>, <a href="http://arxiv.org/find/astro-ph/1/au:+Maier_G/0/1/0/all/0/1">G. Maier</a>, <a href="http://arxiv.org/find/astro-ph/1/au:+McArthur_S/0/1/0/all/0/1">S. McArthur</a>, <a href="http://arxiv.org/find/astro-ph/1/au:+McCann_A/0/1/0/all/0/1">A. McCann</a>, <a href="http://arxiv.org/find/astro-ph/1/au:+Moriarty_P/0/1/0/all/0/1">P. Moriarty</a>, <a href="http://arxiv.org/find/astro-ph/1/au:+Newbold_M/0/1/0/all/0/1">M. D. Newbold</a>, <a href="http://arxiv.org/find/astro-ph/1/au:+Ong_R/0/1/0/all/0/1">R. A. Ong</a>, <a href="http://arxiv.org/find/astro-ph/1/au:+Orr_M/0/1/0/all/0/1">M. Orr</a>, <a href="http://arxiv.org/find/astro-ph/1/au:+Otte_A/0/1/0/all/0/1">A. N. Otte</a>, <a href="http://arxiv.org/find/astro-ph/1/au:+Park_N/0/1/0/all/0/1">N. Park</a>, <a href="http://arxiv.org/find/astro-ph/1/au:+Perkins_J/0/1/0/all/0/1">J. S. Perkins</a>, <a href="http://arxiv.org/find/astro-ph/1/au:+Pohl_M/0/1/0/all/0/1">M. Pohl</a>, <a href="http://arxiv.org/find/astro-ph/1/au:+Prokoph_H/0/1/0/all/0/1">H. Prokoph</a>, <a href="http://arxiv.org/find/astro-ph/1/au:+Quinn_J/0/1/0/all/0/1">J. Quinn</a>, <a href="http://arxiv.org/find/astro-ph/1/au:+Ragan_K/0/1/0/all/0/1">K. Ragan</a>, <a href="http://arxiv.org/find/astro-ph/1/au:+Reyes_L/0/1/0/all/0/1">L. C. Reyes</a>, <a href="http://arxiv.org/find/astro-ph/1/au:+Reynolds_P/0/1/0/all/0/1">P. T. Reynolds</a>, <a href="http://arxiv.org/find/astro-ph/1/au:+Roache_E/0/1/0/all/0/1">E. Roache</a>, <a href="http://arxiv.org/find/astro-ph/1/au:+Rose_H/0/1/0/all/0/1">H. J. Rose</a>, <a href="http://arxiv.org/find/astro-ph/1/au:+Ruppel_J/0/1/0/all/0/1">J. Ruppel</a>, et al. (22 additional authors not shown)
p266
sg30
V<p>We present the results of sixteen Swift-triggered GRB follow-up observations\u000ataken with the VERITAS telescope array from January, 2007 to June, 2009. The\u000amedian energy threshold and response time of these observations was 260 GeV and\u000a320 s, respectively. Observations had an average duration of 90 minutes. Each\u000aburst is analyzed independently in two modes: over the whole duration of the\u000aobservations and again over a shorter time scale determined by the maximum\u000aVERITAS sensitivity to a burst with a t^-1.5 time profile. This temporal model\u000ais characteristic of GRB afterglows with high-energy, long-lived emission that\u000ahave been detected by the Large Area Telescope (LAT) on-board the Fermi\u000asatellite. No significant VHE gamma-ray emission was detected and upper limits\u000aabove the VERITAS threshold energy are calculated. The VERITAS upper limits are\u000acorrected for gamma-ray extinction by the extragalactic background light (EBL)\u000aand interpreted in the context of the keV emission detected by Swift. For some\u000abursts the VHE emission must have less power than the keV emission, placing\u000aconstraints on inverse Compton models of VHE emission.\u000a</p>
p267
sS'title_detail'
p268
g1
(g2
g3
(dp269
g7
Vhttp://export.arxiv.org/rss/astro-ph
p270
sg9
S'text/plain'
p271
sg11
Nsg12
g265
stp272
Rp273
sg38
g262
sg39
(lp274
g1
(g2
g3
(dp275
tp276
Rp277
asS'author_detail'
p278
g1
(g2
g3
(dp279
g46
g266
stp280
Rp281
sg49
Vhttp://arxiv.org/abs/1109.0050
p282
stp283
Rp284
a.