(lp0
ccopy_reg
_reconstructor
p1
(cfeedparser
FeedParserDict
p2
c__builtin__
dict
p3
(dp4
S'summary_detail'
p5
g1
(g2
g3
(dp6
S'base'
p7
Vhttp://export.arxiv.org/rss/astro-ph
p8
sS'type'
p9
S'text/html'
p10
sS'language'
p11
NsS'value'
p12
V<p>Gamma-ray binaries emit most of their radiated power beyond ~10 MeV. The\u000anon-thermal emission is thought to arise from the interaction of the\u000arelativistic wind of a rotation-powered pulsar with the stellar wind of its\u000amassive (O or Be) companion star. A powerful pulsar creates an extended cavity,\u000afilled with relativistic electrons, in the radiatively-driven wind of the\u000amassive star. As a result, the observed P Cyg profiles of UV resonant lines\u000afrom the stellar wind should be different from those of single massive stars.\u000aWe propose to use UV emission lines to detect and constrain the colliding wind\u000aregion in gamma-ray binaries. We compute the expected orbital variability of P\u000aCyg profiles depending upon the interaction geometry (set by the ratio of\u000amomentum fluxes from the winds) and the line-of-sight to the system. We predict\u000alittle or no variability for the case of LS 5039 and PSR B1259-63, in agreement\u000awith currently available HST observations of LS 5039. However, variability\u000abetween superior and inferior conjunction is expected in the case of LS I+61\u000a303.\u000a</p>
p13
stp14
Rp15
sS'links'
p16
(lp17
g1
(g2
g3
(dp18
S'href'
p19
Vhttp://arxiv.org/abs/1111.6975
p20
sg9
S'text/html'
p21
sS'rel'
p22
S'alternate'
p23
stp24
Rp25
asS'title'
p26
VTracing colliding winds in the UV line orbital variability of gamma-ray binaries. (arXiv:1111.6975v1 [astro-ph.HE])
p27
sS'author'
p28
V<a href="http://arxiv.org/find/astro-ph/1/au:+Szostek_A/0/1/0/all/0/1">A. Szostek</a>, <a href="http://arxiv.org/find/astro-ph/1/au:+Dubus_G/0/1/0/all/0/1">G. Dubus</a>, <a href="http://arxiv.org/find/astro-ph/1/au:+McSwain_M/0/1/0/all/0/1">M. V. McSwain</a>
p29
sS'summary'
p30
V<p>Gamma-ray binaries emit most of their radiated power beyond ~10 MeV. The\u000anon-thermal emission is thought to arise from the interaction of the\u000arelativistic wind of a rotation-powered pulsar with the stellar wind of its\u000amassive (O or Be) companion star. A powerful pulsar creates an extended cavity,\u000afilled with relativistic electrons, in the radiatively-driven wind of the\u000amassive star. As a result, the observed P Cyg profiles of UV resonant lines\u000afrom the stellar wind should be different from those of single massive stars.\u000aWe propose to use UV emission lines to detect and constrain the colliding wind\u000aregion in gamma-ray binaries. We compute the expected orbital variability of P\u000aCyg profiles depending upon the interaction geometry (set by the ratio of\u000amomentum fluxes from the winds) and the line-of-sight to the system. We predict\u000alittle or no variability for the case of LS 5039 and PSR B1259-63, in agreement\u000awith currently available HST observations of LS 5039. However, variability\u000abetween superior and inferior conjunction is expected in the case of LS I+61\u000a303.\u000a</p>
p31
sS'title_detail'
p32
g1
(g2
g3
(dp33
g7
Vhttp://export.arxiv.org/rss/astro-ph
p34
sg9
S'text/plain'
p35
sg11
Nsg12
g27
stp36
Rp37
sS'link'
p38
g20
sS'authors'
p39
(lp40
g1
(g2
g3
(dp41
tp42
Rp43
asS'author_detail'
p44
g1
(g2
g3
(dp45
S'name'
p46
g29
stp47
Rp48
sS'id'
p49
Vhttp://arxiv.org/abs/1111.6975
p50
stp51
Rp52
ag52
ag1
(g2
g3
(dp53
S'summary_detail'
p54
g1
(g2
g3
(dp55
g7
Vhttp://export.arxiv.org/rss/astro-ph
p56
sg9
S'text/html'
p57
sg11
Nsg12
V<p>Indirect searches for dark matter annihilation or decay products in the\u000acosmic-ray spectrum are plagued by the question of how to disentangle a dark\u000amatter signal from the omnipresent astrophysical background. One of the\u000apractically background-free smoking-gun signatures for dark matter would be the\u000aobservation of a sharp cutoff or a pronounced bump in the gamma-ray energy\u000aspectrum. Such features are generically produced in many dark matter models by\u000ainternal Bremsstrahlung, and they can be treated in a similar manner as the\u000atraditionally looked-for gamma-ray lines. Here, we discuss prospects for seeing\u000asuch features with present and future Atmospheric Cherenkov Telescopes.\u000a</p>
p58
stp59
Rp60
sg16
(lp61
g1
(g2
g3
(dp62
g19
Vhttp://arxiv.org/abs/1111.6998
p63
sg9
g21
sg22
g23
stp64
Rp65
asg26
VSpectral cutoffs in indirect dark matter searches. (arXiv:1111.6998v1 [hep-ph])
p66
sg28
V<a href="http://arxiv.org/find/hep-ph/1/au:+Weniger_C/0/1/0/all/0/1">Christoph Weniger</a>, <a href="http://arxiv.org/find/hep-ph/1/au:+Bringmann_T/0/1/0/all/0/1">Torsten Bringmann</a>, <a href="http://arxiv.org/find/hep-ph/1/au:+Calore_F/0/1/0/all/0/1">Francesca Calore</a>, <a href="http://arxiv.org/find/hep-ph/1/au:+Vertongen_G/0/1/0/all/0/1">Gilles Vertongen</a>
p67
sg30
V<p>Indirect searches for dark matter annihilation or decay products in the\u000acosmic-ray spectrum are plagued by the question of how to disentangle a dark\u000amatter signal from the omnipresent astrophysical background. One of the\u000apractically background-free smoking-gun signatures for dark matter would be the\u000aobservation of a sharp cutoff or a pronounced bump in the gamma-ray energy\u000aspectrum. Such features are generically produced in many dark matter models by\u000ainternal Bremsstrahlung, and they can be treated in a similar manner as the\u000atraditionally looked-for gamma-ray lines. Here, we discuss prospects for seeing\u000asuch features with present and future Atmospheric Cherenkov Telescopes.\u000a</p>
p68
sS'title_detail'
p69
g1
(g2
g3
(dp70
g7
Vhttp://export.arxiv.org/rss/astro-ph
p71
sg9
S'text/plain'
p72
sg11
Nsg12
g66
stp73
Rp74
sg38
g63
sg39
(lp75
g1
(g2
g3
(dp76
tp77
Rp78
asS'author_detail'
p79
g1
(g2
g3
(dp80
g46
g67
stp81
Rp82
sg49
Vhttp://arxiv.org/abs/1111.6998
p83
stp84
Rp85
ag1
(g2
g3
(dp86
S'summary_detail'
p87
g1
(g2
g3
(dp88
g7
Vhttp://export.arxiv.org/rss/astro-ph
p89
sg9
S'text/html'
p90
sg11
Nsg12
V<p>The GOES M2-class solar flare, SOL2010-06-12T00:57, was modest in many\u000arespects yet exhibited remarkable acceleration of energetic particles. The\u000aflare produced an ~50 s impulsive burst of hard X- and \u005cgamma-ray emission up\u000ato at least 400 MeV observed by the Fermi GBM and LAT experiments. The\u000aremarkably similar hard X-ray and high-energy \u005cgamma-ray time profiles suggest\u000athat most of the particles were accelerated to energies &gt;300 MeV with a delay\u000aof ~10 s from mildly relativistic electrons, but some reached these energies in\u000aas little as ~3 s. The \u005cgamma-ray line fluence from this flare was about ten\u000atimes higher than that typically observed from this modest GOES class of X-ray\u000aflare. There is no evidence for time-extended &gt;100 MeV emission as has been\u000afound for other flares with high-energy \u005cgamma rays.\u000a</p>
p91
stp92
Rp93
sg16
(lp94
g1
(g2
g3
(dp95
g19
Vhttp://arxiv.org/abs/1111.7026
p96
sg9
g21
sg22
g23
stp97
Rp98
asg26
VFermi Detection of \u005cgamma-ray emission from the M2 Soft X-ray Flare on 2010 June 12. (arXiv:1111.7026v1 [astro-ph.HE])
p99
sg28
V<a href="http://arxiv.org/find/astro-ph/1/au:+Collaboration_Fermi_GBM/0/1/0/all/0/1">Fermi GBM Collaboration</a>, <a href="http://arxiv.org/find/astro-ph/1/au:+Collaboration_Fermi_LAT/0/1/0/all/0/1">Fermi LAT Collaboration</a>, <a href="http://arxiv.org/find/astro-ph/1/au:+Dennis_B/0/1/0/all/0/1">B. R. Dennis</a>, <a href="http://arxiv.org/find/astro-ph/1/au:+Schwartz_R/0/1/0/all/0/1">R. A. Schwartz</a>, <a href="http://arxiv.org/find/astro-ph/1/au:+Tolbert_A/0/1/0/all/0/1">A. K. Tolbert</a>
p100
sg30
V<p>The GOES M2-class solar flare, SOL2010-06-12T00:57, was modest in many\u000arespects yet exhibited remarkable acceleration of energetic particles. The\u000aflare produced an ~50 s impulsive burst of hard X- and \u005cgamma-ray emission up\u000ato at least 400 MeV observed by the Fermi GBM and LAT experiments. The\u000aremarkably similar hard X-ray and high-energy \u005cgamma-ray time profiles suggest\u000athat most of the particles were accelerated to energies &gt;300 MeV with a delay\u000aof ~10 s from mildly relativistic electrons, but some reached these energies in\u000aas little as ~3 s. The \u005cgamma-ray line fluence from this flare was about ten\u000atimes higher than that typically observed from this modest GOES class of X-ray\u000aflare. There is no evidence for time-extended &gt;100 MeV emission as has been\u000afound for other flares with high-energy \u005cgamma rays.\u000a</p>
p101
sS'title_detail'
p102
g1
(g2
g3
(dp103
g7
Vhttp://export.arxiv.org/rss/astro-ph
p104
sg9
S'text/plain'
p105
sg11
Nsg12
VFermi Detection of \u005cgamma-ray emission from the M2 Soft X-ray Flare on 2010 June 12. (arXiv:1111.7026v1 [astro-ph.HE])
p106
stp107
Rp108
sg38
g96
sg39
(lp109
g1
(g2
g3
(dp110
tp111
Rp112
asS'author_detail'
p113
g1
(g2
g3
(dp114
g46
g100
stp115
Rp116
sg49
Vhttp://arxiv.org/abs/1111.7026
p117
stp118
Rp119
ag119
ag1
(g2
g3
(dp120
S'summary_detail'
p121
g1
(g2
g3
(dp122
g7
Vhttp://export.arxiv.org/rss/astro-ph
p123
sg9
S'text/html'
p124
sg11
Nsg12
V<p>Context. Transient neutrino sources such as Gamma-Ray Bursts (GRBs) and\u000aSupernovae (SNe) are hypothesized to emit bursts of high-energy neutrinos on a\u000atime-scale of \u005clesssim 100 s. While GRB neutrinos would be produced in high\u000arelativistic jets, core-collapse SNe might host soft-relativistic jets, which\u000abecome stalled in the outer layers of the progenitor star leading to an\u000aefficient production of high-energy neutrinos. Aims. To increase the\u000asensitivity to these neutrinos and identify their sources, a low-threshold\u000aoptical follow-up program for neutrino multiplets detected with the IceCube\u000aobservatory has been implemented. Methods. If a neutrino multiplet, i.e. two or\u000amore neutrinos from the same direction within 100 s, is found by IceCube a\u000atrigger is sent to the Robotic Optical Transient Search Experiment, ROTSE. The\u000a4 ROTSE telescopes immediately start an observation program of the\u000acorresponding region of the sky in order to detect an optical counterpart to\u000athe neutrino events. Results. No statistically significant excess in the rate\u000aof neutrino multiplets has been observed and furthermore no coincidence with an\u000aoptical counterpart was found. Conclusion. The search allows, for the first\u000atime, to set stringent limits on current models predicting a high-energy\u000aneutrino flux from soft relativistic hadronic jets in core-collapse SNe. We\u000aconclude that a sub-population of SNe with typical Lorentz boost factor and jet\u000aenergy of 10 and 3\u005ctimes10^{51} erg, respectively, does not exceed 4.2% at 90%\u000aconfidence.\u000a</p>
p125
stp126
Rp127
sg16
(lp128
g1
(g2
g3
(dp129
g19
Vhttp://arxiv.org/abs/1111.7030
p130
sg9
g21
sg22
g23
stp131
Rp132
asg26
VSearching for soft relativistic jets in Core-collapse Supernovae with the IceCube Optical Follow-up Program. (arXiv:1111.7030v1 [astro-ph.HE])
p133
sg28
VThe <a href="http://arxiv.org/find/astro-ph/1/au:+Collaboration_IceCube/0/1/0/all/0/1">IceCube Collaboration</a>: <a href="http://arxiv.org/find/astro-ph/1/au:+Abbasi_R/0/1/0/all/0/1">R. Abbasi</a>, <a href="http://arxiv.org/find/astro-ph/1/au:+Abdou_Y/0/1/0/all/0/1">Y. Abdou</a>, <a href="http://arxiv.org/find/astro-ph/1/au:+Abu_Zayyad_T/0/1/0/all/0/1">T. Abu-Zayyad</a>, <a href="http://arxiv.org/find/astro-ph/1/au:+Ackermann_M/0/1/0/all/0/1">M. Ackermann</a>, <a href="http://arxiv.org/find/astro-ph/1/au:+Adams_J/0/1/0/all/0/1">J. Adams</a>, <a href="http://arxiv.org/find/astro-ph/1/au:+Aguilar_J/0/1/0/all/0/1">J. A. Aguilar</a>, <a href="http://arxiv.org/find/astro-ph/1/au:+Ahlers_M/0/1/0/all/0/1">M. Ahlers</a>, <a href="http://arxiv.org/find/astro-ph/1/au:+Allen_M/0/1/0/all/0/1">M. M. Allen</a>, <a href="http://arxiv.org/find/astro-ph/1/au:+Altmann_D/0/1/0/all/0/1">D. Altmann</a>, <a href="http://arxiv.org/find/astro-ph/1/au:+Andeen_K/0/1/0/all/0/1">K. Andeen</a>, <a href="http://arxiv.org/find/astro-ph/1/au:+Auffenberg_J/0/1/0/all/0/1">J. Auffenberg</a>, <a href="http://arxiv.org/find/astro-ph/1/au:+Bai_X/0/1/0/all/0/1">X. Bai</a>, <a href="http://arxiv.org/find/astro-ph/1/au:+Baker_M/0/1/0/all/0/1">M. Baker</a>, <a href="http://arxiv.org/find/astro-ph/1/au:+Barwick_S/0/1/0/all/0/1">S. W. Barwick</a>, <a href="http://arxiv.org/find/astro-ph/1/au:+Bay_R/0/1/0/all/0/1">R. Bay</a>, <a href="http://arxiv.org/find/astro-ph/1/au:+Alba_J/0/1/0/all/0/1">J. L. Bazo Alba</a>, <a href="http://arxiv.org/find/astro-ph/1/au:+Beattie_K/0/1/0/all/0/1">K. Beattie</a>, <a href="http://arxiv.org/find/astro-ph/1/au:+Beatty_J/0/1/0/all/0/1">J. J. Beatty</a>, <a href="http://arxiv.org/find/astro-ph/1/au:+Bechet_S/0/1/0/all/0/1">S. Bechet</a>, <a href="http://arxiv.org/find/astro-ph/1/au:+Becker_J/0/1/0/all/0/1">J. K. Becker</a>, <a href="http://arxiv.org/find/astro-ph/1/au:+Becker_K/0/1/0/all/0/1">K.-H. Becker</a>, <a href="http://arxiv.org/find/astro-ph/1/au:+Benabderrahmane_M/0/1/0/all/0/1">M. L. Benabderrahmane</a>, <a href="http://arxiv.org/find/astro-ph/1/au:+BenZvi_S/0/1/0/all/0/1">S. BenZvi</a>, <a href="http://arxiv.org/find/astro-ph/1/au:+Berdermann_J/0/1/0/all/0/1">J. Berdermann</a>, <a href="http://arxiv.org/find/astro-ph/1/au:+Berghaus_P/0/1/0/all/0/1">P. Berghaus</a>, <a href="http://arxiv.org/find/astro-ph/1/au:+Berley_D/0/1/0/all/0/1">D. Berley</a>, <a href="http://arxiv.org/find/astro-ph/1/au:+Bernardini_E/0/1/0/all/0/1">E. Bernardini</a>, <a href="http://arxiv.org/find/astro-ph/1/au:+Bertrand_D/0/1/0/all/0/1">D. Bertrand</a>, <a href="http://arxiv.org/find/astro-ph/1/au:+Besson_D/0/1/0/all/0/1">D. Z. Besson</a>, <a href="http://arxiv.org/find/astro-ph/1/au:+Bindig_D/0/1/0/all/0/1">D. Bindig</a>, <a href="http://arxiv.org/find/astro-ph/1/au:+Bissok_M/0/1/0/all/0/1">M. Bissok</a>, <a href="http://arxiv.org/find/astro-ph/1/au:+Blaufuss_E/0/1/0/all/0/1">E. Blaufuss</a>, <a href="http://arxiv.org/find/astro-ph/1/au:+Blumenthal_J/0/1/0/all/0/1">J. Blumenthal</a>, <a href="http://arxiv.org/find/astro-ph/1/au:+Boersma_D/0/1/0/all/0/1">D. J. Boersma</a>, <a href="http://arxiv.org/find/astro-ph/1/au:+Bohm_C/0/1/0/all/0/1">C. Bohm</a>, <a href="http://arxiv.org/find/astro-ph/1/au:+Bose_D/0/1/0/all/0/1">D. Bose</a>, <a href="http://arxiv.org/find/astro-ph/1/au:+Boser_S/0/1/0/all/0/1">S. B&#xf6;ser</a>, <a href="http://arxiv.org/find/astro-ph/1/au:+Botner_O/0/1/0/all/0/1">O. Botner</a>, <a href="http://arxiv.org/find/astro-ph/1/au:+Brown_A/0/1/0/all/0/1">A. M. Brown</a>, <a href="http://arxiv.org/find/astro-ph/1/au:+Buitink_S/0/1/0/all/0/1">S. Buitink</a>, <a href="http://arxiv.org/find/astro-ph/1/au:+Caballero_Mora_K/0/1/0/all/0/1">K. S. Caballero-Mora</a>, <a href="http://arxiv.org/find/astro-ph/1/au:+Carson_M/0/1/0/all/0/1">M. Carson</a>, <a href="http://arxiv.org/find/astro-ph/1/au:+Chirkin_D/0/1/0/all/0/1">D. Chirkin</a>, <a href="http://arxiv.org/find/astro-ph/1/au:+Christy_B/0/1/0/all/0/1">B. Christy</a>, <a href="http://arxiv.org/find/astro-ph/1/au:+Clevermann_F/0/1/0/all/0/1">F. Clevermann</a>, <a href="http://arxiv.org/find/astro-ph/1/au:+Cohen_S/0/1/0/all/0/1">S. Cohen</a>, <a href="http://arxiv.org/find/astro-ph/1/au:+Colnard_C/0/1/0/all/0/1">C. Colnard</a>, <a href="http://arxiv.org/find/astro-ph/1/au:+Cowen_D/0/1/0/all/0/1">D. F. Cowen</a>, <a href="http://arxiv.org/find/astro-ph/1/au:+Silva_A/0/1/0/all/0/1">A. H. Cruz Silva</a>, <a href="http://arxiv.org/find/astro-ph/1/au:+DAgostino_M/0/1/0/all/0/1">M. V. D&#x27;Agostino</a>, <a href="http://arxiv.org/find/astro-ph/1/au:+Danninger_M/0/1/0/all/0/1">M. Danninger</a>, <a href="http://arxiv.org/find/astro-ph/1/au:+Daughhetee_J/0/1/0/all/0/1">J. Daughhetee</a>, <a href="http://arxiv.org/find/astro-ph/1/au:+Davis_J/0/1/0/all/0/1">J. C. Davis</a>, <a href="http://arxiv.org/find/astro-ph/1/au:+Clercq_C/0/1/0/all/0/1">C. De Clercq</a>, <a href="http://arxiv.org/find/astro-ph/1/au:+Degner_T/0/1/0/all/0/1">T. Degner</a>, <a href="http://arxiv.org/find/astro-ph/1/au:+Demirors_L/0/1/0/all/0/1">L. Demir&#xf6;rs</a>, <a href="http://arxiv.org/find/astro-ph/1/au:+Descamps_F/0/1/0/all/0/1">F. Descamps</a>, <a href="http://arxiv.org/find/astro-ph/1/au:+Desiati_P/0/1/0/all/0/1">P. Desiati</a>, <a href="http://arxiv.org/find/astro-ph/1/au:+Vries_Uiterweerd_G/0/1/0/all/0/1">G. de Vries-Uiterweerd</a>, et al. (204 additional authors not shown)
p134
sg30
V<p>Context. Transient neutrino sources such as Gamma-Ray Bursts (GRBs) and\u000aSupernovae (SNe) are hypothesized to emit bursts of high-energy neutrinos on a\u000atime-scale of \u005clesssim 100 s. While GRB neutrinos would be produced in high\u000arelativistic jets, core-collapse SNe might host soft-relativistic jets, which\u000abecome stalled in the outer layers of the progenitor star leading to an\u000aefficient production of high-energy neutrinos. Aims. To increase the\u000asensitivity to these neutrinos and identify their sources, a low-threshold\u000aoptical follow-up program for neutrino multiplets detected with the IceCube\u000aobservatory has been implemented. Methods. If a neutrino multiplet, i.e. two or\u000amore neutrinos from the same direction within 100 s, is found by IceCube a\u000atrigger is sent to the Robotic Optical Transient Search Experiment, ROTSE. The\u000a4 ROTSE telescopes immediately start an observation program of the\u000acorresponding region of the sky in order to detect an optical counterpart to\u000athe neutrino events. Results. No statistically significant excess in the rate\u000aof neutrino multiplets has been observed and furthermore no coincidence with an\u000aoptical counterpart was found. Conclusion. The search allows, for the first\u000atime, to set stringent limits on current models predicting a high-energy\u000aneutrino flux from soft relativistic hadronic jets in core-collapse SNe. We\u000aconclude that a sub-population of SNe with typical Lorentz boost factor and jet\u000aenergy of 10 and 3\u005ctimes10^{51} erg, respectively, does not exceed 4.2% at 90%\u000aconfidence.\u000a</p>
p135
sS'title_detail'
p136
g1
(g2
g3
(dp137
g7
Vhttp://export.arxiv.org/rss/astro-ph
p138
sg9
S'text/plain'
p139
sg11
Nsg12
g133
stp140
Rp141
sg38
g130
sg39
(lp142
g1
(g2
g3
(dp143
tp144
Rp145
asS'author_detail'
p146
g1
(g2
g3
(dp147
g46
g134
stp148
Rp149
sg49
Vhttp://arxiv.org/abs/1111.7030
p150
stp151
Rp152
ag1
(g2
g3
(dp153
S'summary_detail'
p154
g1
(g2
g3
(dp155
g7
Vhttp://export.arxiv.org/rss/astro-ph
p156
sg9
S'text/html'
p157
sg11
Nsg12
V<p>We show that the photospheres of "failed" Gamma-Ray Bursts (GRBs), whose bulk\u000aLorentz factors are much lower than 100, can be outside of internal shocks. The\u000aresulting radiation from the photospheres is thermal and bright in UV/Soft\u000aX-ray band. The photospheric emission lasts for about one thousand seconds with\u000aluminosity about several times 10^46 erg/s. These events can be observed by\u000acurrent and future satellites. It is also shown that the afterglows of failed\u000aGRBs are peculiar at the early stage, which makes it possible to distinguish\u000afailed GRBs from ordinary GRBs and beaming-induced orphan afterglows.\u000a</p>
p158
stp159
Rp160
sg16
(lp161
g1
(g2
g3
(dp162
g19
Vhttp://arxiv.org/abs/1111.7084
p163
sg9
g21
sg22
g23
stp164
Rp165
asg26
VFailed Gamma-Ray Bursts: Thermal UV/Soft X-ray Emission Accompanied by Peculiar Afterglows. (arXiv:1111.7084v1 [astro-ph.HE])
p166
sg28
V<a href="http://arxiv.org/find/astro-ph/1/au:+Xu_M/0/1/0/all/0/1">M. Xu</a>, <a href="http://arxiv.org/find/astro-ph/1/au:+Nagataki_S/0/1/0/all/0/1">S. Nagataki</a>, <a href="http://arxiv.org/find/astro-ph/1/au:+Huang_Y/0/1/0/all/0/1">Y.-F. Huang</a>, <a href="http://arxiv.org/find/astro-ph/1/au:+Lee_S/0/1/0/all/0/1">S.-H. Lee</a>
p167
sg30
V<p>We show that the photospheres of "failed" Gamma-Ray Bursts (GRBs), whose bulk\u000aLorentz factors are much lower than 100, can be outside of internal shocks. The\u000aresulting radiation from the photospheres is thermal and bright in UV/Soft\u000aX-ray band. The photospheric emission lasts for about one thousand seconds with\u000aluminosity about several times 10^46 erg/s. These events can be observed by\u000acurrent and future satellites. It is also shown that the afterglows of failed\u000aGRBs are peculiar at the early stage, which makes it possible to distinguish\u000afailed GRBs from ordinary GRBs and beaming-induced orphan afterglows.\u000a</p>
p168
sS'title_detail'
p169
g1
(g2
g3
(dp170
g7
Vhttp://export.arxiv.org/rss/astro-ph
p171
sg9
S'text/plain'
p172
sg11
Nsg12
g166
stp173
Rp174
sg38
g163
sg39
(lp175
g1
(g2
g3
(dp176
tp177
Rp178
asS'author_detail'
p179
g1
(g2
g3
(dp180
g46
g167
stp181
Rp182
sg49
Vhttp://arxiv.org/abs/1111.7084
p183
stp184
Rp185
ag1
(g2
g3
(dp186
S'summary_detail'
p187
g1
(g2
g3
(dp188
g7
Vhttp://export.arxiv.org/rss/astro-ph
p189
sg9
S'text/html'
p190
sg11
Nsg12
V<p>Relativistic sources, e.g. gamma-ray bursts, pulsar wind nebulae and powerful\u000aactive galactic nuclei produce relativistic outflows that lead to the formation\u000aof collisionless shock waves, where particle acceleration is thought to take\u000aplace. Our understanding of relativistic shock acceleration has improved in the\u000apast decade, thanks to the combination of analytical studies and high level\u000anumerical simulations. In ultra-relativistic shocks, particle acceleration is\u000amade difficult by the generically transverse magnetic field and large advection\u000aspeed of the shocked plasma. Fast growing microturbulence is thus needed to\u000amake the Fermi process operative. It is thought, and numerical simulations\u000asupport that view, that the penetration of supra-thermal particles in the shock\u000aprecursor generates a magnetic turbulence which in turn produces the scattering\u000aprocess needed for particle acceleration through the Fermi mechanism. Through\u000athe comparison of the growth timescale of the microinstabilities in the shock\u000aprecursor and the precursor crossing timescale, it is possible to delimit in\u000aterms of magnetization and shock Lorentz factor the region in which\u000amicro-turbulence may be excited, hence whether and how Fermi acceleration is\u000atriggered. These findings are summarized here and astrophysical consequences\u000aare drawn.\u000a</p>
p191
stp192
Rp193
sg16
(lp194
g1
(g2
g3
(dp195
g19
Vhttp://arxiv.org/abs/1111.7110
p196
sg9
g21
sg22
g23
stp197
Rp198
asg26
VParticle acceleration at relativistic shock waves. (arXiv:1111.7110v1 [astro-ph.HE])
p199
sg28
V<a href="http://arxiv.org/find/astro-ph/1/au:+Lemoine_M/0/1/0/all/0/1">Martin Lemoine</a> (IAP), <a href="http://arxiv.org/find/astro-ph/1/au:+Pelletier_G/0/1/0/all/0/1">Guy Pelletier</a> (IPAG)
p200
sg30
V<p>Relativistic sources, e.g. gamma-ray bursts, pulsar wind nebulae and powerful\u000aactive galactic nuclei produce relativistic outflows that lead to the formation\u000aof collisionless shock waves, where particle acceleration is thought to take\u000aplace. Our understanding of relativistic shock acceleration has improved in the\u000apast decade, thanks to the combination of analytical studies and high level\u000anumerical simulations. In ultra-relativistic shocks, particle acceleration is\u000amade difficult by the generically transverse magnetic field and large advection\u000aspeed of the shocked plasma. Fast growing microturbulence is thus needed to\u000amake the Fermi process operative. It is thought, and numerical simulations\u000asupport that view, that the penetration of supra-thermal particles in the shock\u000aprecursor generates a magnetic turbulence which in turn produces the scattering\u000aprocess needed for particle acceleration through the Fermi mechanism. Through\u000athe comparison of the growth timescale of the microinstabilities in the shock\u000aprecursor and the precursor crossing timescale, it is possible to delimit in\u000aterms of magnetization and shock Lorentz factor the region in which\u000amicro-turbulence may be excited, hence whether and how Fermi acceleration is\u000atriggered. These findings are summarized here and astrophysical consequences\u000aare drawn.\u000a</p>
p201
sS'title_detail'
p202
g1
(g2
g3
(dp203
g7
Vhttp://export.arxiv.org/rss/astro-ph
p204
sg9
S'text/plain'
p205
sg11
Nsg12
g199
stp206
Rp207
sg38
g196
sg39
(lp208
g1
(g2
g3
(dp209
tp210
Rp211
asS'author_detail'
p212
g1
(g2
g3
(dp213
g46
g200
stp214
Rp215
sg49
Vhttp://arxiv.org/abs/1111.7110
p216
stp217
Rp218
ag1
(g2
g3
(dp219
S'summary_detail'
p220
g1
(g2
g3
(dp221
g7
Vhttp://export.arxiv.org/rss/astro-ph
p222
sg9
S'text/html'
p223
sg11
Nsg12
V<p>The gravitino in models with a small violation of R-parity is a\u000awell-motivated decaying dark matter candidate that leads to a cosmological\u000ascenario that is consistent with big bang nucleosynthesis and thermal\u000aleptogenesis. The gravitino lifetime is cosmologically long-lived since its\u000adecays are suppressed by the Planck-scale as well as the small R-parity\u000aviolating parameter. We discuss the signals in different cosmic-ray species\u000acoming from the decay of gravitino dark matter, namely gamma rays, positrons,\u000aantiprotons, antideuterons and neutrinos. Comparison to cosmic-ray data can be\u000aused to constrain the parameters of the model.\u000a</p>
p224
stp225
Rp226
sg16
(lp227
g1
(g2
g3
(dp228
g19
Vhttp://arxiv.org/abs/1111.7117
p229
sg9
g21
sg22
g23
stp230
Rp231
asg26
VIndirect searches for gravitino dark matter. (arXiv:1111.7117v1 [hep-ph])
p232
sg28
V<a href="http://arxiv.org/find/hep-ph/1/au:+Grefe_M/0/1/0/all/0/1">Michael Grefe</a> (DESY, Madrid, Autonoma U. and Madrid, IFT)
p233
sg30
V<p>The gravitino in models with a small violation of R-parity is a\u000awell-motivated decaying dark matter candidate that leads to a cosmological\u000ascenario that is consistent with big bang nucleosynthesis and thermal\u000aleptogenesis. The gravitino lifetime is cosmologically long-lived since its\u000adecays are suppressed by the Planck-scale as well as the small R-parity\u000aviolating parameter. We discuss the signals in different cosmic-ray species\u000acoming from the decay of gravitino dark matter, namely gamma rays, positrons,\u000aantiprotons, antideuterons and neutrinos. Comparison to cosmic-ray data can be\u000aused to constrain the parameters of the model.\u000a</p>
p234
sS'title_detail'
p235
g1
(g2
g3
(dp236
g7
Vhttp://export.arxiv.org/rss/astro-ph
p237
sg9
S'text/plain'
p238
sg11
Nsg12
g232
stp239
Rp240
sg38
g229
sg39
(lp241
g1
(g2
g3
(dp242
tp243
Rp244
asS'author_detail'
p245
g1
(g2
g3
(dp246
g46
g233
stp247
Rp248
sg49
Vhttp://arxiv.org/abs/1111.7117
p249
stp250
Rp251
ag1
(g2
g3
(dp252
S'summary_detail'
p253
g1
(g2
g3
(dp254
g7
Vhttp://export.arxiv.org/rss/astro-ph
p255
sg9
S'text/html'
p256
sg11
Nsg12
V<p>The resonant excitation of neutron star (NS) modes by tides is investigated\u000aas a source of short gamma-ray burst (sGRB) precursors. We find that the\u000adriving of a crust-core interface mode can lead to shattering of the NS crust,\u000aliberating ~10^46-10^47 erg of energy seconds before the merger of a NS-NS or\u000aNS-black hole binary. Such properties are consistent with Swift/BAT detections\u000aof sGRB precursors, and we use the timing of the observed precursors to place\u000aweak constraints on the crust equation of state. We describe how a larger\u000asample of precursor detections could be used alongside coincident gravitational\u000awave detections of the inspiral by Advanced LIGO class detectors to probe the\u000aNS structure. These two types of observations nicely complement one another,\u000asince the former constrains the equation of state and structure near the\u000acrust-core boundary, while the latter is more sensitive to the core equation of\u000astate.\u000a</p>
p257
stp258
Rp259
sg16
(lp260
g1
(g2
g3
(dp261
g19
Vhttp://arxiv.org/abs/1110.0467
p262
sg9
g21
sg22
g23
stp263
Rp264
asg26
VResonant Shattering of Neutron Star Crusts. (arXiv:1110.0467v2 [astro-ph.HE] UPDATED)
p265
sg28
V<a href="http://arxiv.org/find/astro-ph/1/au:+Tsang_D/0/1/0/all/0/1">David Tsang</a>, <a href="http://arxiv.org/find/astro-ph/1/au:+Read_J/0/1/0/all/0/1">Jocelyn S. Read</a>, <a href="http://arxiv.org/find/astro-ph/1/au:+Hinderer_T/0/1/0/all/0/1">Tanja Hinderer</a>, <a href="http://arxiv.org/find/astro-ph/1/au:+Piro_A/0/1/0/all/0/1">Anthony L. Piro</a>, <a href="http://arxiv.org/find/astro-ph/1/au:+Bondarescu_R/0/1/0/all/0/1">Ruxandra Bondarescu</a>
p266
sg30
V<p>The resonant excitation of neutron star (NS) modes by tides is investigated\u000aas a source of short gamma-ray burst (sGRB) precursors. We find that the\u000adriving of a crust-core interface mode can lead to shattering of the NS crust,\u000aliberating ~10^46-10^47 erg of energy seconds before the merger of a NS-NS or\u000aNS-black hole binary. Such properties are consistent with Swift/BAT detections\u000aof sGRB precursors, and we use the timing of the observed precursors to place\u000aweak constraints on the crust equation of state. We describe how a larger\u000asample of precursor detections could be used alongside coincident gravitational\u000awave detections of the inspiral by Advanced LIGO class detectors to probe the\u000aNS structure. These two types of observations nicely complement one another,\u000asince the former constrains the equation of state and structure near the\u000acrust-core boundary, while the latter is more sensitive to the core equation of\u000astate.\u000a</p>
p267
sS'title_detail'
p268
g1
(g2
g3
(dp269
g7
Vhttp://export.arxiv.org/rss/astro-ph
p270
sg9
S'text/plain'
p271
sg11
Nsg12
g265
stp272
Rp273
sg38
g262
sg39
(lp274
g1
(g2
g3
(dp275
tp276
Rp277
asS'author_detail'
p278
g1
(g2
g3
(dp279
g46
g266
stp280
Rp281
sg49
Vhttp://arxiv.org/abs/1110.0467
p282
stp283
Rp284
ag1
(g2
g3
(dp285
S'summary_detail'
p286
g1
(g2
g3
(dp287
g7
Vhttp://export.arxiv.org/rss/astro-ph
p288
sg9
S'text/html'
p289
sg11
Nsg12
V<p>The Cygnus region hosts a giant molecular-cloud complex which actively forms\u000amassive stars. Interactions of cosmic rays with interstellar gas and radiation\u000afields make it shine at gamma-ray energies. Several gamma-ray pulsars and other\u000aenergetic sources are seen in this direction. In this paper we analyse the\u000agamma-ray emission measured by the Fermi Large Area Telescope in the energy\u000arange from 100 MeV to 100 GeV in order to probe the gas and cosmic-ray content\u000aover the scale of the whole Cygnus complex. The signal from bright pulsars is\u000alargely reduced by selecting photons in their off-pulse phase intervals. We\u000acompare the diffuse gamma-ray emission with interstellar gas maps derived from\u000aradio/mm-wave lines and visual extinction data, and a global model of the\u000aregion, including other pulsars and gamma-ray sources, is sought. The integral\u000aHI emissivity and its spectral energy distribution are both consistent within\u000athe systematics with LAT measurements in the interstellar space near the solar\u000asystem. The average X=N(H2)/W(CO) ratio is consistent with other LAT\u000ameasurements in the Local Arm. We detect significant gamma-ray emission from\u000adark neutral gas for a mass corresponding to ~40% of that traced by CO. Despite\u000athe conspicuous star formation activity and large masses of the interstellar\u000aclouds, the cosmic-ray population in the Cygnus complex averaged over a few\u000ahundred parsecs is similar to that of the local interstellar space. (abridged)\u000a</p>
p290
stp291
Rp292
sg16
(lp293
g1
(g2
g3
(dp294
g19
Vhttp://arxiv.org/abs/1110.6123
p295
sg9
g21
sg22
g23
stp296
Rp297
asg26
VThe cosmic-ray and gas content of the Cygnus region as measured in gamma rays by the Fermi Large Area Telescope. (arXiv:1110.6123v2 [astro-ph.HE] UPDATED)
p298
sg28
Vthe <a href="http://arxiv.org/find/astro-ph/1/au:+Collaboration_Fermi_LAT/0/1/0/all/0/1">Fermi LAT Collaboration</a>
p299
sg30
V<p>The Cygnus region hosts a giant molecular-cloud complex which actively forms\u000amassive stars. Interactions of cosmic rays with interstellar gas and radiation\u000afields make it shine at gamma-ray energies. Several gamma-ray pulsars and other\u000aenergetic sources are seen in this direction. In this paper we analyse the\u000agamma-ray emission measured by the Fermi Large Area Telescope in the energy\u000arange from 100 MeV to 100 GeV in order to probe the gas and cosmic-ray content\u000aover the scale of the whole Cygnus complex. The signal from bright pulsars is\u000alargely reduced by selecting photons in their off-pulse phase intervals. We\u000acompare the diffuse gamma-ray emission with interstellar gas maps derived from\u000aradio/mm-wave lines and visual extinction data, and a global model of the\u000aregion, including other pulsars and gamma-ray sources, is sought. The integral\u000aHI emissivity and its spectral energy distribution are both consistent within\u000athe systematics with LAT measurements in the interstellar space near the solar\u000asystem. The average X=N(H2)/W(CO) ratio is consistent with other LAT\u000ameasurements in the Local Arm. We detect significant gamma-ray emission from\u000adark neutral gas for a mass corresponding to ~40% of that traced by CO. Despite\u000athe conspicuous star formation activity and large masses of the interstellar\u000aclouds, the cosmic-ray population in the Cygnus complex averaged over a few\u000ahundred parsecs is similar to that of the local interstellar space. (abridged)\u000a</p>
p300
sS'title_detail'
p301
g1
(g2
g3
(dp302
g7
Vhttp://export.arxiv.org/rss/astro-ph
p303
sg9
S'text/plain'
p304
sg11
Nsg12
g298
stp305
Rp306
sg38
g295
sg39
(lp307
g1
(g2
g3
(dp308
tp309
Rp310
asS'author_detail'
p311
g1
(g2
g3
(dp312
g46
g299
stp313
Rp314
sg49
Vhttp://arxiv.org/abs/1110.6123
p315
stp316
Rp317
a.