(lp0
ccopy_reg
_reconstructor
p1
(cfeedparser
FeedParserDict
p2
c__builtin__
dict
p3
(dp4
S'summary_detail'
p5
g1
(g2
g3
(dp6
S'base'
p7
Vhttp://export.arxiv.org/rss/astro-ph
p8
sS'type'
p9
S'text/html'
p10
sS'language'
p11
NsS'value'
p12
V<p>Abridged: The giant radio galaxy M 87 with its proximity, famous jet, and\u000avery massive black hole provides a unique opportunity to investigate the origin\u000aof very high energy (VHE; E&gt;100 GeV) gamma-ray emission generated in\u000arelativistic outflows and the surroundings of super-massive black holes. M 87\u000ahas been established as a VHE gamma-ray emitter since 2006. The VHE gamma-ray\u000aemission displays strong variability on timescales as short as a day. In this\u000apaper, results from a joint VHE monitoring campaign on M 87 by the MAGIC and\u000aVERITAS instruments in 2010 are reported. During the campaign, a flare at VHE\u000awas detected triggering further observations at VHE (H.E.S.S.), X-rays\u000a(Chandra), and radio (43 GHz VLBA). The excellent sampling of the VHE gamma-ray\u000alight curve enables one to derive a precise temporal characterization of the\u000aflare: the single, isolated flare is well described by a two-sided exponential\u000afunction with significantly different flux rise and decay times. While the\u000aoverall variability pattern of the 2010 flare appears somewhat different from\u000athat of previous VHE flares in 2005 and 2008, they share very similar\u000atimescales (~day), peak fluxes (Phi(&gt;0.35 TeV) ~= (1-3) x 10^-11 ph cm^-2\u000as^-1), and VHE spectra. 43 GHz VLBA radio observations of the inner jet regions\u000aindicate no enhanced flux in 2010 in contrast to observations in 2008, where an\u000aincrease of the radio flux of the innermost core regions coincided with a VHE\u000aflare. On the other hand, Chandra X-ray observations taken ~3 days after the\u000apeak of the VHE gamma-ray emission reveal an enhanced flux from the core. The\u000along-term (2001-2010) multi-wavelength light curve of M 87, spanning from radio\u000ato VHE and including data from HST, LT, VLA and EVN, is used to further\u000ainvestigate the origin of the VHE gamma-ray emission. No unique, common MWL\u000asignature of the three VHE flares has been identified.\u000a</p>
p13
stp14
Rp15
sS'links'
p16
(lp17
g1
(g2
g3
(dp18
S'href'
p19
Vhttp://arxiv.org/abs/1111.5341
p20
sg9
S'text/html'
p21
sS'rel'
p22
S'alternate'
p23
stp24
Rp25
asS'title'
p26
VThe 2010 very high energy gamma-ray flare & 10 years of multi-wavelength observations of M 87. (arXiv:1111.5341v1 [astro-ph.CO])
p27
sS'author'
p28
VThe <a href="http://arxiv.org/find/astro-ph/1/au:+Collaboration_H%2E_E%2E_S%2E_S%2E/0/1/0/all/0/1">H.E.S.S. Collaboration</a>: <a href="http://arxiv.org/find/astro-ph/1/au:+Abramowski_A/0/1/0/all/0/1">A. Abramowski</a>, <a href="http://arxiv.org/find/astro-ph/1/au:+Acero_F/0/1/0/all/0/1">F. Acero</a>, <a href="http://arxiv.org/find/astro-ph/1/au:+Aharonian_F/0/1/0/all/0/1">F. Aharonian</a>, <a href="http://arxiv.org/find/astro-ph/1/au:+Akhperjanian_A/0/1/0/all/0/1">A. G. Akhperjanian</a>, <a href="http://arxiv.org/find/astro-ph/1/au:+Anton_G/0/1/0/all/0/1">G. Anton</a>, <a href="http://arxiv.org/find/astro-ph/1/au:+Balzer_A/0/1/0/all/0/1">A. Balzer</a>, <a href="http://arxiv.org/find/astro-ph/1/au:+Barnacka_A/0/1/0/all/0/1">A. Barnacka</a>, <a href="http://arxiv.org/find/astro-ph/1/au:+Almeida_U/0/1/0/all/0/1">U. Barres de Almeida</a>, <a href="http://arxiv.org/find/astro-ph/1/au:+Becherini_Y/0/1/0/all/0/1">Y. Becherini</a>, <a href="http://arxiv.org/find/astro-ph/1/au:+Becker_J/0/1/0/all/0/1">J. Becker</a>, <a href="http://arxiv.org/find/astro-ph/1/au:+Behera_B/0/1/0/all/0/1">B. Behera</a>, <a href="http://arxiv.org/find/astro-ph/1/au:+Bernlohr_K/0/1/0/all/0/1">K. Bernl&#xf6;hr</a>, <a href="http://arxiv.org/find/astro-ph/1/au:+Birsin_E/0/1/0/all/0/1">E. Birsin</a>, <a href="http://arxiv.org/find/astro-ph/1/au:+Biteau_J/0/1/0/all/0/1">J. Biteau</a>, <a href="http://arxiv.org/find/astro-ph/1/au:+Bochow_A/0/1/0/all/0/1">A. Bochow</a>, <a href="http://arxiv.org/find/astro-ph/1/au:+Boisson_C/0/1/0/all/0/1">C. Boisson</a>, <a href="http://arxiv.org/find/astro-ph/1/au:+Bolmont_J/0/1/0/all/0/1">J. Bolmont</a>, <a href="http://arxiv.org/find/astro-ph/1/au:+Bordas_P/0/1/0/all/0/1">P. Bordas</a>, <a href="http://arxiv.org/find/astro-ph/1/au:+Brucker_J/0/1/0/all/0/1">J. Brucker</a>, <a href="http://arxiv.org/find/astro-ph/1/au:+Brun_F/0/1/0/all/0/1">F. Brun</a>, <a href="http://arxiv.org/find/astro-ph/1/au:+Brun_P/0/1/0/all/0/1">P. Brun</a>, <a href="http://arxiv.org/find/astro-ph/1/au:+Bulik_T/0/1/0/all/0/1">T. Bulik</a>, <a href="http://arxiv.org/find/astro-ph/1/au:+Busching_I/0/1/0/all/0/1">I. B&#xfc;sching</a>, <a href="http://arxiv.org/find/astro-ph/1/au:+Carrigan_S/0/1/0/all/0/1">S. Carrigan</a>, <a href="http://arxiv.org/find/astro-ph/1/au:+Casanova_S/0/1/0/all/0/1">S. Casanova</a>, <a href="http://arxiv.org/find/astro-ph/1/au:+Cerruti_M/0/1/0/all/0/1">M. Cerruti</a>, <a href="http://arxiv.org/find/astro-ph/1/au:+Chadwick_P/0/1/0/all/0/1">P. M. Chadwick</a>, <a href="http://arxiv.org/find/astro-ph/1/au:+Charbonnier_A/0/1/0/all/0/1">A. Charbonnier</a>, <a href="http://arxiv.org/find/astro-ph/1/au:+Chaves_R/0/1/0/all/0/1">R. C. G. Chaves</a>, <a href="http://arxiv.org/find/astro-ph/1/au:+Cheesebrough_A/0/1/0/all/0/1">A. Cheesebrough</a>, <a href="http://arxiv.org/find/astro-ph/1/au:+Clapson_A/0/1/0/all/0/1">A. C. Clapson</a>, <a href="http://arxiv.org/find/astro-ph/1/au:+Coignet_G/0/1/0/all/0/1">G. Coignet</a>, <a href="http://arxiv.org/find/astro-ph/1/au:+Cologna_G/0/1/0/all/0/1">G. Cologna</a>, <a href="http://arxiv.org/find/astro-ph/1/au:+Conrad_J/0/1/0/all/0/1">J. Conrad</a>, <a href="http://arxiv.org/find/astro-ph/1/au:+Dalton_M/0/1/0/all/0/1">M. Dalton</a>, <a href="http://arxiv.org/find/astro-ph/1/au:+Daniel_M/0/1/0/all/0/1">M. K. Daniel</a>, <a href="http://arxiv.org/find/astro-ph/1/au:+Davids_I/0/1/0/all/0/1">I. D. Davids</a>, <a href="http://arxiv.org/find/astro-ph/1/au:+Degrange_B/0/1/0/all/0/1">B. Degrange</a>, <a href="http://arxiv.org/find/astro-ph/1/au:+Deil_C/0/1/0/all/0/1">C. Deil</a>, <a href="http://arxiv.org/find/astro-ph/1/au:+Dickinson_H/0/1/0/all/0/1">H. J. Dickinson</a>, <a href="http://arxiv.org/find/astro-ph/1/au:+Djannati_Atai_A/0/1/0/all/0/1">A. Djannati-Ata&#xef;</a>, <a href="http://arxiv.org/find/astro-ph/1/au:+Domainko_W/0/1/0/all/0/1">W. Domainko</a>, <a href="http://arxiv.org/find/astro-ph/1/au:+Drury_L/0/1/0/all/0/1">L. O&#x27;C. Drury</a>, <a href="http://arxiv.org/find/astro-ph/1/au:+Dubus_G/0/1/0/all/0/1">G. Dubus</a>, <a href="http://arxiv.org/find/astro-ph/1/au:+Dutson_K/0/1/0/all/0/1">K. Dutson</a>, <a href="http://arxiv.org/find/astro-ph/1/au:+Dyks_J/0/1/0/all/0/1">J. Dyks</a>, <a href="http://arxiv.org/find/astro-ph/1/au:+Dyrda_M/0/1/0/all/0/1">M. Dyrda</a>, <a href="http://arxiv.org/find/astro-ph/1/au:+Egberts_K/0/1/0/all/0/1">K. Egberts</a>, <a href="http://arxiv.org/find/astro-ph/1/au:+Eger_P/0/1/0/all/0/1">P. Eger</a>, <a href="http://arxiv.org/find/astro-ph/1/au:+Espigat_P/0/1/0/all/0/1">P. Espigat</a>, <a href="http://arxiv.org/find/astro-ph/1/au:+Fallon_L/0/1/0/all/0/1">L. Fallon</a>, <a href="http://arxiv.org/find/astro-ph/1/au:+Farnier_C/0/1/0/all/0/1">C. Farnier</a>, <a href="http://arxiv.org/find/astro-ph/1/au:+Fegan_S/0/1/0/all/0/1">S. Fegan</a>, <a href="http://arxiv.org/find/astro-ph/1/au:+Feinstein_F/0/1/0/all/0/1">F. Feinstein</a>, <a href="http://arxiv.org/find/astro-ph/1/au:+Fernandes_M/0/1/0/all/0/1">M. V. Fernandes</a>, <a href="http://arxiv.org/find/astro-ph/1/au:+Fiasson_A/0/1/0/all/0/1">A. Fiasson</a>, <a href="http://arxiv.org/find/astro-ph/1/au:+Fontaine_G/0/1/0/all/0/1">G. Fontaine</a>, <a href="http://arxiv.org/find/astro-ph/1/au:+Forster_A/0/1/0/all/0/1">A. F&#xf6;rster</a>, <a href="http://arxiv.org/find/astro-ph/1/au:+Fussling_M/0/1/0/all/0/1">M. F&#xfc;&#xdf;ling</a>, et al. (387 additional authors not shown)
p29
sS'summary'
p30
V<p>Abridged: The giant radio galaxy M 87 with its proximity, famous jet, and\u000avery massive black hole provides a unique opportunity to investigate the origin\u000aof very high energy (VHE; E&gt;100 GeV) gamma-ray emission generated in\u000arelativistic outflows and the surroundings of super-massive black holes. M 87\u000ahas been established as a VHE gamma-ray emitter since 2006. The VHE gamma-ray\u000aemission displays strong variability on timescales as short as a day. In this\u000apaper, results from a joint VHE monitoring campaign on M 87 by the MAGIC and\u000aVERITAS instruments in 2010 are reported. During the campaign, a flare at VHE\u000awas detected triggering further observations at VHE (H.E.S.S.), X-rays\u000a(Chandra), and radio (43 GHz VLBA). The excellent sampling of the VHE gamma-ray\u000alight curve enables one to derive a precise temporal characterization of the\u000aflare: the single, isolated flare is well described by a two-sided exponential\u000afunction with significantly different flux rise and decay times. While the\u000aoverall variability pattern of the 2010 flare appears somewhat different from\u000athat of previous VHE flares in 2005 and 2008, they share very similar\u000atimescales (~day), peak fluxes (Phi(&gt;0.35 TeV) ~= (1-3) x 10^-11 ph cm^-2\u000as^-1), and VHE spectra. 43 GHz VLBA radio observations of the inner jet regions\u000aindicate no enhanced flux in 2010 in contrast to observations in 2008, where an\u000aincrease of the radio flux of the innermost core regions coincided with a VHE\u000aflare. On the other hand, Chandra X-ray observations taken ~3 days after the\u000apeak of the VHE gamma-ray emission reveal an enhanced flux from the core. The\u000along-term (2001-2010) multi-wavelength light curve of M 87, spanning from radio\u000ato VHE and including data from HST, LT, VLA and EVN, is used to further\u000ainvestigate the origin of the VHE gamma-ray emission. No unique, common MWL\u000asignature of the three VHE flares has been identified.\u000a</p>
p31
sS'title_detail'
p32
g1
(g2
g3
(dp33
g7
Vhttp://export.arxiv.org/rss/astro-ph
p34
sg9
S'text/plain'
p35
sg11
Nsg12
g27
stp36
Rp37
sS'link'
p38
g20
sS'authors'
p39
(lp40
g1
(g2
g3
(dp41
tp42
Rp43
asS'author_detail'
p44
g1
(g2
g3
(dp45
S'name'
p46
g29
stp47
Rp48
sS'id'
p49
Vhttp://arxiv.org/abs/1111.5341
p50
stp51
Rp52
ag1
(g2
g3
(dp53
S'summary_detail'
p54
g1
(g2
g3
(dp55
g7
Vhttp://export.arxiv.org/rss/astro-ph
p56
sg9
S'text/html'
p57
sg11
Nsg12
V<p>The giant radio galaxy M 87, with its proximity (16 Mpc) and its very massive\u000ablack hole ((3 - 6) \u005ctimes 10^9 M_solar), provides a unique laboratory to\u000ainvestigate very high energy (E&gt;100 GeV; VHE) gamma-ray emission from active\u000agalactic nuclei and, thereby, probe particle acceleration to relativistic\u000aenergies near supermassive black holes (SMBH) and in relativistic jets. M 87\u000ahas been established as a VHE gamma-ray emitter since 2005. The VHE gamma-ray\u000aemission displays strong variability on timescales as short as a day. In 2008,\u000aa rise in the 43 GHz Very Long Baseline Array (VLBA) radio emission of the\u000ainnermost region (core; extension of &lt; 100 Rs ; Schwarzschild radii) was found\u000ato coincide with a flaring activity at VHE. This had been interpreted as a\u000astrong indication that the VHE emission is produced in the direct vicinity of\u000athe SMBH. In 2010 a flare at VHE was again detected triggering further\u000amulti-wavelength (MWL) observations with the VLBA, Chandra, and other\u000ainstruments. At the same time, M 87 was also observed with the Fermi-LAT\u000atelescope at MeV/GeV energies, the European VLBI Network (EVN), and the\u000aLiverpool Telescope (LT). Here, preliminary results from the 2010 campaign will\u000abe reported.\u000a</p>
p58
stp59
Rp60
sg16
(lp61
g1
(g2
g3
(dp62
g19
Vhttp://arxiv.org/abs/1111.5344
p63
sg9
g21
sg22
g23
stp64
Rp65
asg26
VThe 2010 M 87 VHE flare and its origin: the multi-wavelength picture. (arXiv:1111.5344v1 [astro-ph.CO])
p66
sg28
V<a href="http://arxiv.org/find/astro-ph/1/au:+Raue_M/0/1/0/all/0/1">M. Raue</a>, <a href="http://arxiv.org/find/astro-ph/1/au:+Stawarz_L/0/1/0/all/0/1">L. Stawarz</a>, <a href="http://arxiv.org/find/astro-ph/1/au:+Mazin_D/0/1/0/all/0/1">D. Mazin</a>, <a href="http://arxiv.org/find/astro-ph/1/au:+Colin_P/0/1/0/all/0/1">P. Colin</a>, <a href="http://arxiv.org/find/astro-ph/1/au:+Hui_C/0/1/0/all/0/1">C. M. Hui</a>, <a href="http://arxiv.org/find/astro-ph/1/au:+Beilicke_M/0/1/0/all/0/1">M. Beilicke</a>, <a href="http://arxiv.org/find/astro-ph/1/au:+McConville_M/0/1/0/all/0/1">M. McConville</a>, <a href="http://arxiv.org/find/astro-ph/1/au:+Giroletti_M/0/1/0/all/0/1">M. Giroletti</a>, <a href="http://arxiv.org/find/astro-ph/1/au:+Harris_D/0/1/0/all/0/1">D. E. Harris</a>, <a href="http://arxiv.org/find/astro-ph/1/au:+Steele_I/0/1/0/all/0/1">I. A. Steele</a>, <a href="http://arxiv.org/find/astro-ph/1/au:+Walker_R/0/1/0/all/0/1">R. C. Walker</a>, for the <a href="http://arxiv.org/find/astro-ph/1/au:+Collaboration_H%2E_E%2E_S%2E_S%2E/0/1/0/all/0/1">H.E.S.S. Collaboration</a>, for the <a href="http://arxiv.org/find/astro-ph/1/au:+Collaboration_MAGIC/0/1/0/all/0/1">MAGIC Collaboration</a>, for the <a href="http://arxiv.org/find/astro-ph/1/au:+Collaboration_VERITAS/0/1/0/all/0/1">VERITAS Collaboration</a>, for the <a href="http://arxiv.org/find/astro-ph/1/au:+Collaboration_Fermi_LAT/0/1/0/all/0/1">Fermi-LAT Collaboration</a>, the <a href="http://arxiv.org/find/astro-ph/1/au:+team_M_87_MWL_monitoring/0/1/0/all/0/1">M 87 MWL monitoring teams</a>
p67
sg30
V<p>The giant radio galaxy M 87, with its proximity (16 Mpc) and its very massive\u000ablack hole ((3 - 6) \u005ctimes 10^9 M_solar), provides a unique laboratory to\u000ainvestigate very high energy (E&gt;100 GeV; VHE) gamma-ray emission from active\u000agalactic nuclei and, thereby, probe particle acceleration to relativistic\u000aenergies near supermassive black holes (SMBH) and in relativistic jets. M 87\u000ahas been established as a VHE gamma-ray emitter since 2005. The VHE gamma-ray\u000aemission displays strong variability on timescales as short as a day. In 2008,\u000aa rise in the 43 GHz Very Long Baseline Array (VLBA) radio emission of the\u000ainnermost region (core; extension of &lt; 100 Rs ; Schwarzschild radii) was found\u000ato coincide with a flaring activity at VHE. This had been interpreted as a\u000astrong indication that the VHE emission is produced in the direct vicinity of\u000athe SMBH. In 2010 a flare at VHE was again detected triggering further\u000amulti-wavelength (MWL) observations with the VLBA, Chandra, and other\u000ainstruments. At the same time, M 87 was also observed with the Fermi-LAT\u000atelescope at MeV/GeV energies, the European VLBI Network (EVN), and the\u000aLiverpool Telescope (LT). Here, preliminary results from the 2010 campaign will\u000abe reported.\u000a</p>
p68
sS'title_detail'
p69
g1
(g2
g3
(dp70
g7
Vhttp://export.arxiv.org/rss/astro-ph
p71
sg9
S'text/plain'
p72
sg11
Nsg12
g66
stp73
Rp74
sg38
g63
sg39
(lp75
g1
(g2
g3
(dp76
tp77
Rp78
asS'author_detail'
p79
g1
(g2
g3
(dp80
g46
g67
stp81
Rp82
sg49
Vhttp://arxiv.org/abs/1111.5344
p83
stp84
Rp85
ag1
(g2
g3
(dp86
S'summary_detail'
p87
g1
(g2
g3
(dp88
g7
Vhttp://export.arxiv.org/rss/astro-ph
p89
sg9
S'text/html'
p90
sg11
Nsg12
V<p>The unusual radio burst of May 29, 2003 connected with the M1.5 flare in AR\u000a10368 has been analyzed. It was observed by the Solar Broadband Radio\u000aSpectrometer (SBRS/Huairou station, Beijing) in the 5.2-7.6 GHz range. It\u000aproved to be only the third case of a neat zebra structure appearing among all\u000aobservations at such high frequencies. Despite the short duration of the burst\u000a(25 s), it provided a wealth of data for studying the superfine structure with\u000amillisecond resolution (5 ms). We localize the site of emission sources in the\u000aflare region, estimate plasma parameters in the generation sites, and suggest\u000aapplicable mechanisms for interpretating spikes and zebra-structure generation.\u000aPositions of radio bursts were obtained by the Siberian Solar Radio Telescope\u000a(SSRT) (5.7 GHz) and Nobeyama radioheliograph (NoRH) (17 GHz). The sources in\u000aintensity gravitated to tops of short loops at 17 GHz, and to long loops at 5.7\u000aGHz. Short pulses at 17 GHz (with a temporal resolution of 100 ms) are\u000aregistered in the R-polarized source over the N-magnetic polarity\u000a(extraordinary mode). Dynamic spectra show that all the emission comprised\u000amillisecond pulses (spikes) of 5-10 ms duration in the instantaneous band of 70\u000ato 100 MHz, forming the superfine structure of different bursts, essentially in\u000athe form of fast or slow-drift fibers and various zebra-structure stripes. Five\u000ascales of zebra structures have been singled out. As the main mechanism for\u000agenerating spikes (as the initial emission) we suggest the coalescence of\u000aplasma waves with whistlers in the pulse regime of interaction between\u000awhistlers and ion-sound waves. In this case one can explain the appearance of\u000afibers and sporadic zebra-structure stripes exhibiting the frequency splitting.\u000a</p>
p91
stp92
Rp93
sg16
(lp94
g1
(g2
g3
(dp95
g19
Vhttp://arxiv.org/abs/1111.5405
p96
sg9
g21
sg22
g23
stp97
Rp98
asg26
VSpectral and spatial observations of microwave spikes and zebra structure in the short radio burst of May 29, 2003. (arXiv:1111.5405v1 [astro-ph.SR])
p99
sg28
V<a href="http://arxiv.org/find/astro-ph/1/au:+Chernov_G/0/1/0/all/0/1">G. P. Chernov</a>, <a href="http://arxiv.org/find/astro-ph/1/au:+Sych_R/0/1/0/all/0/1">R. A. Sych</a>, <a href="http://arxiv.org/find/astro-ph/1/au:+Meshalkina_N/0/1/0/all/0/1">N. S. Meshalkina</a>, <a href="http://arxiv.org/find/astro-ph/1/au:+Yan_Y/0/1/0/all/0/1">Y. Yan</a>, <a href="http://arxiv.org/find/astro-ph/1/au:+Tan_C/0/1/0/all/0/1">C. Tan</a>
p100
sg30
V<p>The unusual radio burst of May 29, 2003 connected with the M1.5 flare in AR\u000a10368 has been analyzed. It was observed by the Solar Broadband Radio\u000aSpectrometer (SBRS/Huairou station, Beijing) in the 5.2-7.6 GHz range. It\u000aproved to be only the third case of a neat zebra structure appearing among all\u000aobservations at such high frequencies. Despite the short duration of the burst\u000a(25 s), it provided a wealth of data for studying the superfine structure with\u000amillisecond resolution (5 ms). We localize the site of emission sources in the\u000aflare region, estimate plasma parameters in the generation sites, and suggest\u000aapplicable mechanisms for interpretating spikes and zebra-structure generation.\u000aPositions of radio bursts were obtained by the Siberian Solar Radio Telescope\u000a(SSRT) (5.7 GHz) and Nobeyama radioheliograph (NoRH) (17 GHz). The sources in\u000aintensity gravitated to tops of short loops at 17 GHz, and to long loops at 5.7\u000aGHz. Short pulses at 17 GHz (with a temporal resolution of 100 ms) are\u000aregistered in the R-polarized source over the N-magnetic polarity\u000a(extraordinary mode). Dynamic spectra show that all the emission comprised\u000amillisecond pulses (spikes) of 5-10 ms duration in the instantaneous band of 70\u000ato 100 MHz, forming the superfine structure of different bursts, essentially in\u000athe form of fast or slow-drift fibers and various zebra-structure stripes. Five\u000ascales of zebra structures have been singled out. As the main mechanism for\u000agenerating spikes (as the initial emission) we suggest the coalescence of\u000aplasma waves with whistlers in the pulse regime of interaction between\u000awhistlers and ion-sound waves. In this case one can explain the appearance of\u000afibers and sporadic zebra-structure stripes exhibiting the frequency splitting.\u000a</p>
p101
sS'title_detail'
p102
g1
(g2
g3
(dp103
g7
Vhttp://export.arxiv.org/rss/astro-ph
p104
sg9
S'text/plain'
p105
sg11
Nsg12
g99
stp106
Rp107
sg38
g96
sg39
(lp108
g1
(g2
g3
(dp109
tp110
Rp111
asS'author_detail'
p112
g1
(g2
g3
(dp113
g46
g100
stp114
Rp115
sg49
Vhttp://arxiv.org/abs/1111.5405
p116
stp117
Rp118
ag1
(g2
g3
(dp119
S'summary_detail'
p120
g1
(g2
g3
(dp121
g7
Vhttp://export.arxiv.org/rss/astro-ph
p122
sg9
S'text/html'
p123
sg11
Nsg12
V<p>We present the results of a search for Sloan Digital Sky Survey (SDSS)\u000aemission-line galaxies with very red 3.4mum - 4.6mum (W1-W2) colours in the\u000aWide-field Infrared Survey Explorer (WISE) Preliminary Release Source Catalogue\u000a(PRSC) aiming to find objects with hot dust emission. For this purpose we\u000aconsidered a sample of ~16000 galaxies with strong emission lines selected out\u000aof a total of ~900000 SDSS spectra and identified them with the PRSC sources.\u000aWe find that ~5000 sources out of the ~16000 SDSS galaxies are present in the\u000aPRSC, including ~1000 galaxies with sufficiently strong [OIII]4363 emission\u000alines to permit reliable determinations of the oxygen abundance. No correlation\u000aof W1-W2 with metallicity is found. On the other hand, there is clear evidence\u000afor a redder W1-W2 index in galaxies with higher Hbeta luminosity and higher\u000aHbeta equivalent width, implying that strong UV radiation from young starbursts\u000aefficiently heats interstellar dust to high temperatures. However, galaxies\u000awith very red colours W1-W2&gt;2 mag, similar to that in the local extreme\u000astar-forming galaxy SBS 0335-052E, are very rare. In addition to three\u000apreviously known sources, which are not present in our sample, we found only\u000afour such galaxies.\u000a</p>
p124
stp125
Rp126
sg16
(lp127
g1
(g2
g3
(dp128
g19
Vhttp://arxiv.org/abs/1111.5450
p129
sg9
g21
sg22
g23
stp130
Rp131
asg26
VStar-forming galaxies with hot dust emission in the Sloan Digital Sky Survey discovered by the Wide-field Infrared Survey Explorer (WISE). (arXiv:1111.5450v1 [astro-ph.CO])
p132
sg28
V<a href="http://arxiv.org/find/astro-ph/1/au:+Izotov_Y/0/1/0/all/0/1">Y. I. Izotov</a> (1,2,3), <a href="http://arxiv.org/find/astro-ph/1/au:+Guseva_N/0/1/0/all/0/1">N. G. Guseva</a> (1 and 2), <a href="http://arxiv.org/find/astro-ph/1/au:+Fricke_K/0/1/0/all/0/1">K. J. Fricke</a> (1 and 4), <a href="http://arxiv.org/find/astro-ph/1/au:+Henkel_C/0/1/0/all/0/1">C. Henkel</a> (1 and 5) ((1) Max-Planck-Institut f&#xfc;r Radioastronomie, Bonn, Germany, (2) Main Astronomical Observatory, Kyiv, Ukraine, (3) LUTH, Observatoire de Paris, Meudon, France, (4) Institut f&#xfc;r Astrophysik, G&#xf6;ttingen Universit&#xe4;t, Germany, (5) Astronomy Department, King Abdulaziz University, Jeddah, Saudi Arabia)
p133
sg30
V<p>We present the results of a search for Sloan Digital Sky Survey (SDSS)\u000aemission-line galaxies with very red 3.4mum - 4.6mum (W1-W2) colours in the\u000aWide-field Infrared Survey Explorer (WISE) Preliminary Release Source Catalogue\u000a(PRSC) aiming to find objects with hot dust emission. For this purpose we\u000aconsidered a sample of ~16000 galaxies with strong emission lines selected out\u000aof a total of ~900000 SDSS spectra and identified them with the PRSC sources.\u000aWe find that ~5000 sources out of the ~16000 SDSS galaxies are present in the\u000aPRSC, including ~1000 galaxies with sufficiently strong [OIII]4363 emission\u000alines to permit reliable determinations of the oxygen abundance. No correlation\u000aof W1-W2 with metallicity is found. On the other hand, there is clear evidence\u000afor a redder W1-W2 index in galaxies with higher Hbeta luminosity and higher\u000aHbeta equivalent width, implying that strong UV radiation from young starbursts\u000aefficiently heats interstellar dust to high temperatures. However, galaxies\u000awith very red colours W1-W2&gt;2 mag, similar to that in the local extreme\u000astar-forming galaxy SBS 0335-052E, are very rare. In addition to three\u000apreviously known sources, which are not present in our sample, we found only\u000afour such galaxies.\u000a</p>
p134
sS'title_detail'
p135
g1
(g2
g3
(dp136
g7
Vhttp://export.arxiv.org/rss/astro-ph
p137
sg9
S'text/plain'
p138
sg11
Nsg12
g132
stp139
Rp140
sg38
g129
sg39
(lp141
g1
(g2
g3
(dp142
tp143
Rp144
asS'author_detail'
p145
g1
(g2
g3
(dp146
g46
g133
stp147
Rp148
sg49
Vhttp://arxiv.org/abs/1111.5450
p149
stp150
Rp151
ag1
(g2
g3
(dp152
S'summary_detail'
p153
g1
(g2
g3
(dp154
g7
Vhttp://export.arxiv.org/rss/astro-ph
p155
sg9
S'text/html'
p156
sg11
Nsg12
V<p>We reconsider the model of neutrino production during the 'bright phase',\u000afirst suggested in 1977, in the light of modern understanding of the role of\u000aPop III stars and acceleration of particles in supernova shocks. We concentrate\u000aon the production of cosmogenic UHE neutrinos in supernova explosions that\u000aaccompany the death of Pop III stars. Accelerated protons produce neutrinos in\u000acollisions with CMB photons. We deliberately use simplified assumptions which\u000amake our results transparent. Pop III stars are assumed to be responsible for\u000athe reionization of the universe as observed by WMAP. Since the evolution of\u000aPop III stars is much faster than the Hubble rate, we consider the burst of UHE\u000aproton production to occur at fixed redshift (z_b=10-20). We discuss the\u000aformation of collisionless shocks and particle acceleration in the early\u000auniverse. The composition of accelerated particles is expected to be proton\u000adominated. A simple calculation is presented to illustrate the fact that the\u000adiffuse neutrinos flux from the bright phase burst is concentrated in a\u000arelatively narrow range around $7.5 \u005ctimes 10^{15}(20/z_b)^2$ eV. The $\u005cnu_\u005cmu$\u000aflux may be detectable by IceCube without violating the cascade upper limit and\u000athe expected energetics of SNe associated with Pop III stars. A possible\u000asignature of the neutrino production from Pop III stars may be the detection of\u000aresonant neutrino events. For the burst at $z_b=20$ and $\u005cbar{\u005cnu}_e$-flux at\u000athe cascade upper limit, the number of resonant events in IceCube may be as\u000ahigh as 10 events in 5 years of observations. These events have equal energies,\u000a$E=6.3\u005ctimes 10^{15}$ eV, in the form of e-m cascades. Given the large\u000auncertainties in the existing predictions of UHE cosmogenic neutrino fluxes, we\u000aargue that neutrinos from the first stars might become one of the most reliable\u000ahopes for UHE neutrino astronomy.\u000a</p>
p157
stp158
Rp159
sg16
(lp160
g1
(g2
g3
(dp161
g19
Vhttp://arxiv.org/abs/1111.5461
p162
sg9
g21
sg22
g23
stp163
Rp164
asg26
VUHE neutrinos from Pop III stars: concept and constraints. (arXiv:1111.5461v1 [astro-ph.HE])
p165
sg28
V<a href="http://arxiv.org/find/astro-ph/1/au:+Berezinsky_V/0/1/0/all/0/1">V. Berezinsky</a> (LNGS), <a href="http://arxiv.org/find/astro-ph/1/au:+Blasi_P/0/1/0/all/0/1">P. Blasi</a> (INAF/Arcetri and LNGS)
p166
sg30
V<p>We reconsider the model of neutrino production during the 'bright phase',\u000afirst suggested in 1977, in the light of modern understanding of the role of\u000aPop III stars and acceleration of particles in supernova shocks. We concentrate\u000aon the production of cosmogenic UHE neutrinos in supernova explosions that\u000aaccompany the death of Pop III stars. Accelerated protons produce neutrinos in\u000acollisions with CMB photons. We deliberately use simplified assumptions which\u000amake our results transparent. Pop III stars are assumed to be responsible for\u000athe reionization of the universe as observed by WMAP. Since the evolution of\u000aPop III stars is much faster than the Hubble rate, we consider the burst of UHE\u000aproton production to occur at fixed redshift (z_b=10-20). We discuss the\u000aformation of collisionless shocks and particle acceleration in the early\u000auniverse. The composition of accelerated particles is expected to be proton\u000adominated. A simple calculation is presented to illustrate the fact that the\u000adiffuse neutrinos flux from the bright phase burst is concentrated in a\u000arelatively narrow range around $7.5 \u005ctimes 10^{15}(20/z_b)^2$ eV. The $\u005cnu_\u005cmu$\u000aflux may be detectable by IceCube without violating the cascade upper limit and\u000athe expected energetics of SNe associated with Pop III stars. A possible\u000asignature of the neutrino production from Pop III stars may be the detection of\u000aresonant neutrino events. For the burst at $z_b=20$ and $\u005cbar{\u005cnu}_e$-flux at\u000athe cascade upper limit, the number of resonant events in IceCube may be as\u000ahigh as 10 events in 5 years of observations. These events have equal energies,\u000a$E=6.3\u005ctimes 10^{15}$ eV, in the form of e-m cascades. Given the large\u000auncertainties in the existing predictions of UHE cosmogenic neutrino fluxes, we\u000aargue that neutrinos from the first stars might become one of the most reliable\u000ahopes for UHE neutrino astronomy.\u000a</p>
p167
sS'title_detail'
p168
g1
(g2
g3
(dp169
g7
Vhttp://export.arxiv.org/rss/astro-ph
p170
sg9
S'text/plain'
p171
sg11
Nsg12
g165
stp172
Rp173
sg38
g162
sg39
(lp174
g1
(g2
g3
(dp175
tp176
Rp177
asS'author_detail'
p178
g1
(g2
g3
(dp179
g46
g166
stp180
Rp181
sg49
Vhttp://arxiv.org/abs/1111.5461
p182
stp183
Rp184
ag1
(g2
g3
(dp185
S'summary_detail'
p186
g1
(g2
g3
(dp187
g7
Vhttp://export.arxiv.org/rss/astro-ph
p188
sg9
S'text/html'
p189
sg11
Nsg12
V<p>Recurrent novae (RNe) play an important role as one of the suspected\u000aprogenitor systems of Type Ia supernovae (SNe) which are used as primary\u000adistance indicators in cosmology. Thus, it is important to investigate the\u000anature of their central binary systems to determine the relation between the\u000aparameters of the central system and outburst type, and finally ascertain the\u000apopulation of novae that might be available to give rise to the progenitors of\u000aType Ia SNe. The details of the preliminary investigation looking for\u000acharacteristics that may distinguish recurrent and classical novae (CNe)\u000asystems, the selection of initial targets for detailed study, and preliminary\u000aresults are presented. We identify 10 suspected RNe among the Galactic CNe\u000apopulation and our initial photometric observations of their quiescent systems\u000asuggest 2 may belong to the RS Oph type and 2 to the U Sco type RNe.\u000aSpectroscopic follow-up is now underway.\u000a</p>
p190
stp191
Rp192
sg16
(lp193
g1
(g2
g3
(dp194
g19
Vhttp://arxiv.org/abs/1111.5524
p195
sg9
g21
sg22
g23
stp196
Rp197
asg26
VInvestigation of the Progenitors of Nova Explosions. (arXiv:1111.5524v1 [astro-ph.SR])
p198
sg28
V<a href="http://arxiv.org/find/astro-ph/1/au:+Surina_F/0/1/0/all/0/1">Farung Surina</a>, <a href="http://arxiv.org/find/astro-ph/1/au:+Bode_M/0/1/0/all/0/1">Mike F. Bode</a>, <a href="http://arxiv.org/find/astro-ph/1/au:+Darnley_M/0/1/0/all/0/1">Matt J. Darnley</a>
p199
sg30
V<p>Recurrent novae (RNe) play an important role as one of the suspected\u000aprogenitor systems of Type Ia supernovae (SNe) which are used as primary\u000adistance indicators in cosmology. Thus, it is important to investigate the\u000anature of their central binary systems to determine the relation between the\u000aparameters of the central system and outburst type, and finally ascertain the\u000apopulation of novae that might be available to give rise to the progenitors of\u000aType Ia SNe. The details of the preliminary investigation looking for\u000acharacteristics that may distinguish recurrent and classical novae (CNe)\u000asystems, the selection of initial targets for detailed study, and preliminary\u000aresults are presented. We identify 10 suspected RNe among the Galactic CNe\u000apopulation and our initial photometric observations of their quiescent systems\u000asuggest 2 may belong to the RS Oph type and 2 to the U Sco type RNe.\u000aSpectroscopic follow-up is now underway.\u000a</p>
p200
sS'title_detail'
p201
g1
(g2
g3
(dp202
g7
Vhttp://export.arxiv.org/rss/astro-ph
p203
sg9
S'text/plain'
p204
sg11
Nsg12
g198
stp205
Rp206
sg38
g195
sg39
(lp207
g1
(g2
g3
(dp208
tp209
Rp210
asS'author_detail'
p211
g1
(g2
g3
(dp212
g46
g199
stp213
Rp214
sg49
Vhttp://arxiv.org/abs/1111.5524
p215
stp216
Rp217
ag1
(g2
g3
(dp218
S'summary_detail'
p219
g1
(g2
g3
(dp220
g7
Vhttp://export.arxiv.org/rss/astro-ph
p221
sg9
S'text/html'
p222
sg11
Nsg12
V<p>We present the results of a photometric campaign of the dwarf nova V1040 Cen.\u000aThe light curve shows two normal outbursts with recurrence time ~ 40 days and\u000aamplitude ~ 2.5 mag. Quiescence data show oscillations with periods in the\u000arange ~ 0.1 days (2.4 h) to ~ 0.5 days (12 h) of unknown origin. We measured\u000athe orbital period of V1040 Cen to be P_orb=0.060458(80) days (1.451+-0.002 h).\u000aBased on the M_v-P_orb relation we found the distance of V1040 Cen to be 88+-31\u000apc. In this paper we also report the detection of eleven new variable stars in\u000athe field of the monitored dwarf nova.\u000a</p>
p223
stp224
Rp225
sg16
(lp226
g1
(g2
g3
(dp227
g19
Vhttp://arxiv.org/abs/1111.5542
p228
sg9
g21
sg22
g23
stp229
Rp230
asg26
VDwarf Nova V1040 Centauri and Variable Stars in its Vicinity. (arXiv:1111.5542v1 [astro-ph.SR])
p231
sg28
V<a href="http://arxiv.org/find/astro-ph/1/au:+Rutkowski_A/0/1/0/all/0/1">A. Rutkowski</a>, <a href="http://arxiv.org/find/astro-ph/1/au:+Pietrukowicz_P/0/1/0/all/0/1">P. Pietrukowicz</a>, <a href="http://arxiv.org/find/astro-ph/1/au:+Olech_A/0/1/0/all/0/1">A. Olech</a>, <a href="http://arxiv.org/find/astro-ph/1/au:+Ak_T/0/1/0/all/0/1">T. Ak</a>, <a href="http://arxiv.org/find/astro-ph/1/au:+Zloczewski_K/0/1/0/all/0/1">K. Zloczewski</a>, <a href="http://arxiv.org/find/astro-ph/1/au:+Poleski_R/0/1/0/all/0/1">R. Poleski</a>, <a href="http://arxiv.org/find/astro-ph/1/au:+Tappert_C/0/1/0/all/0/1">C. Tappert</a>, <a href="http://arxiv.org/find/astro-ph/1/au:+Eker_Z/0/1/0/all/0/1">Z. Eker</a>
p232
sg30
V<p>We present the results of a photometric campaign of the dwarf nova V1040 Cen.\u000aThe light curve shows two normal outbursts with recurrence time ~ 40 days and\u000aamplitude ~ 2.5 mag. Quiescence data show oscillations with periods in the\u000arange ~ 0.1 days (2.4 h) to ~ 0.5 days (12 h) of unknown origin. We measured\u000athe orbital period of V1040 Cen to be P_orb=0.060458(80) days (1.451+-0.002 h).\u000aBased on the M_v-P_orb relation we found the distance of V1040 Cen to be 88+-31\u000apc. In this paper we also report the detection of eleven new variable stars in\u000athe field of the monitored dwarf nova.\u000a</p>
p233
sS'title_detail'
p234
g1
(g2
g3
(dp235
g7
Vhttp://export.arxiv.org/rss/astro-ph
p236
sg9
S'text/plain'
p237
sg11
Nsg12
g231
stp238
Rp239
sg38
g228
sg39
(lp240
g1
(g2
g3
(dp241
tp242
Rp243
asS'author_detail'
p244
g1
(g2
g3
(dp245
g46
g232
stp246
Rp247
sg49
Vhttp://arxiv.org/abs/1111.5542
p248
stp249
Rp250
ag1
(g2
g3
(dp251
S'summary_detail'
p252
g1
(g2
g3
(dp253
g7
Vhttp://export.arxiv.org/rss/astro-ph
p254
sg9
S'text/html'
p255
sg11
Nsg12
V<p>Galaxy clusters are being assembled today in the most energetic phase of\u000ahierarchical structure formation which manifests itself in powerful shocks that\u000acontribute to a substantial energy density of cosmic rays (CRs). Hence,\u000aclusters are expected to be luminous gamma-ray emitters since they also act as\u000aenergy reservoirs for additional CR sources, such as active galactic nuclei and\u000asupernova-driven galactic winds. To detect the gamma-ray emission from CR\u000ainteractions with the ambient cluster gas, we conducted the deepest to date\u000aobservational campaign targeting a galaxy cluster at very high-energy\u000agamma-rays and observed the Perseus cluster with the MAGIC Cherenkov telescopes\u000afor a total of ~85 hr of effective observing time. This campaign resulted in\u000athe detection of the central radio galaxy NGC 1275 at energies E &gt; 100 GeV with\u000aa very steep energy spectrum. Here, we restrict our analysis to energies E &gt;\u000a630 GeV and detect no significant gamma-ray excess. This constrains the average\u000aCR-to-thermal pressure ratio to be &lt;= 1-2%, depending on assumptions and the\u000amodel for CR emission. Comparing these gamma-ray upper limits to predictions\u000afrom cosmological cluster simulations that include CRs constrains the maximum\u000aCR acceleration efficiency at structure formation shocks to be &lt; 50%.\u000aAlternatively, this may argue for non-negligible CR transport processes such as\u000aCR streaming and diffusion into the outer cluster regions. Finally, we derive\u000alower limits on the magnetic field distribution assuming that the Perseus radio\u000amini-halo is generated by secondary electrons/positrons that are created in\u000ahadronic CR interactions: assuming a spectrum of E^-2.2 around TeV energies as\u000aimplied by cluster simulations, we limit the central magnetic field to be &gt; 4-9\u000amicroG, depending on the rate of decline of the magnetic field strength toward\u000alarger radii.\u000a</p>
p256
stp257
Rp258
sg16
(lp259
g1
(g2
g3
(dp260
g19
Vhttp://arxiv.org/abs/1111.5544
p261
sg9
g21
sg22
g23
stp262
Rp263
asg26
VConstraining Cosmic Rays and Magnetic Fields in the Perseus Galaxy Cluster with TeV observations by the MAGIC telescopes. (arXiv:1111.5544v1 [astro-ph.HE])
p264
sg28
V<a href="http://arxiv.org/find/astro-ph/1/au:+Collaboration_MAGIC/0/1/0/all/0/1">MAGIC Collaboration</a>: <a href="http://arxiv.org/find/astro-ph/1/au:+Aleksic_J/0/1/0/all/0/1">J. Aleksi&#x107;</a> (1), <a href="http://arxiv.org/find/astro-ph/1/au:+Alvarez_E/0/1/0/all/0/1">E. A. Alvarez</a> (2), <a href="http://arxiv.org/find/astro-ph/1/au:+Antonelli_L/0/1/0/all/0/1">L. A. Antonelli</a> (3), <a href="http://arxiv.org/find/astro-ph/1/au:+Antoranz_P/0/1/0/all/0/1">P. Antoranz</a> (4), <a href="http://arxiv.org/find/astro-ph/1/au:+Asensio_M/0/1/0/all/0/1">M. Asensio</a> (2), <a href="http://arxiv.org/find/astro-ph/1/au:+Backes_M/0/1/0/all/0/1">M. Backes</a> (5), <a href="http://arxiv.org/find/astro-ph/1/au:+Almeida_U/0/1/0/all/0/1">U. Barres de Almeida</a> (6), <a href="http://arxiv.org/find/astro-ph/1/au:+Barrio_J/0/1/0/all/0/1">J. A. Barrio</a> (2), <a href="http://arxiv.org/find/astro-ph/1/au:+Bastieri_D/0/1/0/all/0/1">D. Bastieri</a> (7), <a href="http://arxiv.org/find/astro-ph/1/au:+Gonzalez_J/0/1/0/all/0/1">J. Becerra Gonz&#xe1;lez</a> (8,9), <a href="http://arxiv.org/find/astro-ph/1/au:+Bednarek_W/0/1/0/all/0/1">W. Bednarek</a> (10), <a href="http://arxiv.org/find/astro-ph/1/au:+Berdyugin_A/0/1/0/all/0/1">A. Berdyugin</a> (11), <a href="http://arxiv.org/find/astro-ph/1/au:+Berger_K/0/1/0/all/0/1">K. Berger</a> (8,9), <a href="http://arxiv.org/find/astro-ph/1/au:+Bernardini_E/0/1/0/all/0/1">E. Bernardini</a> (12), <a href="http://arxiv.org/find/astro-ph/1/au:+Biland_A/0/1/0/all/0/1">A. Biland</a> (13), <a href="http://arxiv.org/find/astro-ph/1/au:+Blanch_O/0/1/0/all/0/1">O. Blanch</a> (1), <a href="http://arxiv.org/find/astro-ph/1/au:+Bock_R/0/1/0/all/0/1">R. K. Bock</a> (6), <a href="http://arxiv.org/find/astro-ph/1/au:+Boller_A/0/1/0/all/0/1">A. Boller</a> (13), <a href="http://arxiv.org/find/astro-ph/1/au:+Bonnoli_G/0/1/0/all/0/1">G. Bonnoli</a> (3), <a href="http://arxiv.org/find/astro-ph/1/au:+Tridon_D/0/1/0/all/0/1">D. Borla Tridon</a> (6), <a href="http://arxiv.org/find/astro-ph/1/au:+Braun_I/0/1/0/all/0/1">I. Braun</a> (13), <a href="http://arxiv.org/find/astro-ph/1/au:+Bretz_T/0/1/0/all/0/1">T. Bretz</a> (14,26), <a href="http://arxiv.org/find/astro-ph/1/au:+Canellas_A/0/1/0/all/0/1">A. Ca&#xf1;ellas</a> (15), <a href="http://arxiv.org/find/astro-ph/1/au:+Carmona_E/0/1/0/all/0/1">E. Carmona</a> (6,28), <a href="http://arxiv.org/find/astro-ph/1/au:+Carosi_A/0/1/0/all/0/1">A. Carosi</a> (3), <a href="http://arxiv.org/find/astro-ph/1/au:+Colin_P/0/1/0/all/0/1">P. Colin</a> (6), <a href="http://arxiv.org/find/astro-ph/1/au:+Colombo_E/0/1/0/all/0/1">E. Colombo</a> (8), <a href="http://arxiv.org/find/astro-ph/1/au:+Contreras_J/0/1/0/all/0/1">J. L. Contreras</a> (2), <a href="http://arxiv.org/find/astro-ph/1/au:+Cortina_J/0/1/0/all/0/1">J. Cortina</a> (1), <a href="http://arxiv.org/find/astro-ph/1/au:+Cossio_L/0/1/0/all/0/1">L. Cossio</a> (16), <a href="http://arxiv.org/find/astro-ph/1/au:+Covino_S/0/1/0/all/0/1">S. Covino</a> (3), <a href="http://arxiv.org/find/astro-ph/1/au:+Dazzi_F/0/1/0/all/0/1">F. Dazzi</a> (16,27), <a href="http://arxiv.org/find/astro-ph/1/au:+Angelis_A/0/1/0/all/0/1">A. De Angelis</a> (16), <a href="http://arxiv.org/find/astro-ph/1/au:+Caneva_G/0/1/0/all/0/1">G. De Caneva</a> (12), <a href="http://arxiv.org/find/astro-ph/1/au:+Pozo_E/0/1/0/all/0/1">E. De Cea del Pozo</a> (17), <a href="http://arxiv.org/find/astro-ph/1/au:+Lotto_B/0/1/0/all/0/1">B. De Lotto</a> (16), <a href="http://arxiv.org/find/astro-ph/1/au:+Mendez_C/0/1/0/all/0/1">C. Delgado Mendez</a> (8,28), <a href="http://arxiv.org/find/astro-ph/1/au:+Ortega_A/0/1/0/all/0/1">A. Diago Ortega</a> (8,9), <a href="http://arxiv.org/find/astro-ph/1/au:+Doert_M/0/1/0/all/0/1">M. Doert</a> (5), <a href="http://arxiv.org/find/astro-ph/1/au:+Dominguez_A/0/1/0/all/0/1">A. Dom&#xed;nguez</a> (18), <a href="http://arxiv.org/find/astro-ph/1/au:+Prester_D/0/1/0/all/0/1">D. Dominis Prester</a> (19), <a href="http://arxiv.org/find/astro-ph/1/au:+Dorner_D/0/1/0/all/0/1">D. Dorner</a> (13), et al. (122 additional authors not shown)
p265
sg30
V<p>Galaxy clusters are being assembled today in the most energetic phase of\u000ahierarchical structure formation which manifests itself in powerful shocks that\u000acontribute to a substantial energy density of cosmic rays (CRs). Hence,\u000aclusters are expected to be luminous gamma-ray emitters since they also act as\u000aenergy reservoirs for additional CR sources, such as active galactic nuclei and\u000asupernova-driven galactic winds. To detect the gamma-ray emission from CR\u000ainteractions with the ambient cluster gas, we conducted the deepest to date\u000aobservational campaign targeting a galaxy cluster at very high-energy\u000agamma-rays and observed the Perseus cluster with the MAGIC Cherenkov telescopes\u000afor a total of ~85 hr of effective observing time. This campaign resulted in\u000athe detection of the central radio galaxy NGC 1275 at energies E &gt; 100 GeV with\u000aa very steep energy spectrum. Here, we restrict our analysis to energies E &gt;\u000a630 GeV and detect no significant gamma-ray excess. This constrains the average\u000aCR-to-thermal pressure ratio to be &lt;= 1-2%, depending on assumptions and the\u000amodel for CR emission. Comparing these gamma-ray upper limits to predictions\u000afrom cosmological cluster simulations that include CRs constrains the maximum\u000aCR acceleration efficiency at structure formation shocks to be &lt; 50%.\u000aAlternatively, this may argue for non-negligible CR transport processes such as\u000aCR streaming and diffusion into the outer cluster regions. Finally, we derive\u000alower limits on the magnetic field distribution assuming that the Perseus radio\u000amini-halo is generated by secondary electrons/positrons that are created in\u000ahadronic CR interactions: assuming a spectrum of E^-2.2 around TeV energies as\u000aimplied by cluster simulations, we limit the central magnetic field to be &gt; 4-9\u000amicroG, depending on the rate of decline of the magnetic field strength toward\u000alarger radii.\u000a</p>
p266
sS'title_detail'
p267
g1
(g2
g3
(dp268
g7
Vhttp://export.arxiv.org/rss/astro-ph
p269
sg9
S'text/plain'
p270
sg11
Nsg12
g264
stp271
Rp272
sg38
g261
sg39
(lp273
g1
(g2
g3
(dp274
tp275
Rp276
asS'author_detail'
p277
g1
(g2
g3
(dp278
g46
g265
stp279
Rp280
sg49
Vhttp://arxiv.org/abs/1111.5544
p281
stp282
Rp283
ag1
(g2
g3
(dp284
S'summary_detail'
p285
g1
(g2
g3
(dp286
g7
Vhttp://export.arxiv.org/rss/astro-ph
p287
sg9
S'text/html'
p288
sg11
Nsg12
V<p>Astrophysical explosions result from the release of magnetic, gravitational,\u000aor thermonuclear energy on dynamical timescales, typically the sound-crossing\u000atime for the system. These explosions include solar and stellar flares,\u000aeruptive phenomena in accretion disks, thermonuclear combustion on the surfaces\u000aof white dwarfs and neutron stars, violent magnetic reconnection in neutron\u000astars, thermonuclear and gravitational collapse supernovae and cosmic gamma-ray\u000abursts, each representing a different type and amount of energy release. This\u000apaper summarizes the properties of these explosions and describes new research\u000aon thermonuclear explosions and explosions in extended circumstellar media.\u000aParallels are drawn between studies of terrestrial and astrophysical\u000aexplosions, especially the physics of the transition from deflagration to\u000adetonation.\u000a</p>\u000a<p>Keywords: neutron stars, black holes, supernovae, gamma-ray bursts,\u000adeflagration, detonation.\u000a</p>
p289
stp290
Rp291
sg16
(lp292
g1
(g2
g3
(dp293
g19
Vhttp://arxiv.org/abs/1111.5584
p294
sg9
g21
sg22
g23
stp295
Rp296
asg26
VAstrophysical Explosions: From Solar Flares to Cosmic Gamma-ray Bursts. (arXiv:1111.5584v1 [astro-ph.HE])
p297
sg28
V<a href="http://arxiv.org/find/astro-ph/1/au:+Wheeler_J/0/1/0/all/0/1">J. Craig Wheeler</a>
p298
sg30
V<p>Astrophysical explosions result from the release of magnetic, gravitational,\u000aor thermonuclear energy on dynamical timescales, typically the sound-crossing\u000atime for the system. These explosions include solar and stellar flares,\u000aeruptive phenomena in accretion disks, thermonuclear combustion on the surfaces\u000aof white dwarfs and neutron stars, violent magnetic reconnection in neutron\u000astars, thermonuclear and gravitational collapse supernovae and cosmic gamma-ray\u000abursts, each representing a different type and amount of energy release. This\u000apaper summarizes the properties of these explosions and describes new research\u000aon thermonuclear explosions and explosions in extended circumstellar media.\u000aParallels are drawn between studies of terrestrial and astrophysical\u000aexplosions, especially the physics of the transition from deflagration to\u000adetonation.\u000a</p>\u000a<p>Keywords: neutron stars, black holes, supernovae, gamma-ray bursts,\u000adeflagration, detonation.\u000a</p>
p299
sS'title_detail'
p300
g1
(g2
g3
(dp301
g7
Vhttp://export.arxiv.org/rss/astro-ph
p302
sg9
S'text/plain'
p303
sg11
Nsg12
g297
stp304
Rp305
sg38
g294
sg39
(lp306
g1
(g2
g3
(dp307
tp308
Rp309
asS'author_detail'
p310
g1
(g2
g3
(dp311
g46
g298
stp312
Rp313
sg49
Vhttp://arxiv.org/abs/1111.5584
p314
stp315
Rp316
ag316
a.